
./syringe--baseline_after_compt.elf:     file format elf32-littlearm


Disassembly of section .plt:

000105a0 <printf@plt-0x14>:
   105a0:	e52de004 	push	{lr}		; (str lr, [sp, #-4]!)
   105a4:	e59fe004 	ldr	lr, [pc, #4]	; 105b0 <printf@plt-0x4>
   105a8:	e08fe00e 	add	lr, pc, lr
   105ac:	e5bef008 	ldr	pc, [lr, #8]!
   105b0:	00011730 	andeq	r1, r1, r0, lsr r7

000105b4 <printf@plt>:
   105b4:	e28fc600 	add	ip, pc, #0, 12
   105b8:	e28cca11 	add	ip, ip, #69632	; 0x11000
   105bc:	e5bcf730 	ldr	pc, [ip, #1840]!	; 0x730

000105c0 <getchar@plt>:
   105c0:	e28fc600 	add	ip, pc, #0, 12
   105c4:	e28cca11 	add	ip, ip, #69632	; 0x11000
   105c8:	e5bcf728 	ldr	pc, [ip, #1832]!	; 0x728

000105cc <usleep@plt>:
   105cc:	e28fc600 	add	ip, pc, #0, 12
   105d0:	e28cca11 	add	ip, ip, #69632	; 0x11000
   105d4:	e5bcf720 	ldr	pc, [ip, #1824]!	; 0x720

000105d8 <gettimeofday@plt>:
   105d8:	e28fc600 	add	ip, pc, #0, 12
   105dc:	e28cca11 	add	ip, ip, #69632	; 0x11000
   105e0:	e5bcf718 	ldr	pc, [ip, #1816]!	; 0x718

000105e4 <puts@plt>:
   105e4:	e28fc600 	add	ip, pc, #0, 12
   105e8:	e28cca11 	add	ip, ip, #69632	; 0x11000
   105ec:	e5bcf710 	ldr	pc, [ip, #1808]!	; 0x710

000105f0 <TEEC_InvokeCommand@plt>:
   105f0:	e28fc600 	add	ip, pc, #0, 12
   105f4:	e28cca11 	add	ip, ip, #69632	; 0x11000
   105f8:	e5bcf708 	ldr	pc, [ip, #1800]!	; 0x708

000105fc <memset@plt>:
   105fc:	e28fc600 	add	ip, pc, #0, 12
   10600:	e28cca11 	add	ip, ip, #69632	; 0x11000
   10604:	e5bcf700 	ldr	pc, [ip, #1792]!	; 0x700

00010608 <errx@plt>:
   10608:	e28fc600 	add	ip, pc, #0, 12
   1060c:	e28cca11 	add	ip, ip, #69632	; 0x11000
   10610:	e5bcf6f8 	ldr	pc, [ip, #1784]!	; 0x6f8

00010614 <sprintf@plt>:
   10614:	e28fc600 	add	ip, pc, #0, 12
   10618:	e28cca11 	add	ip, ip, #69632	; 0x11000
   1061c:	e5bcf6f0 	ldr	pc, [ip, #1776]!	; 0x6f0

00010620 <__isoc99_scanf@plt>:
   10620:	e28fc600 	add	ip, pc, #0, 12
   10624:	e28cca11 	add	ip, ip, #69632	; 0x11000
   10628:	e5bcf6e8 	ldr	pc, [ip, #1768]!	; 0x6e8

0001062c <atoi@plt>:
   1062c:	e28fc600 	add	ip, pc, #0, 12
   10630:	e28cca11 	add	ip, ip, #69632	; 0x11000
   10634:	e5bcf6e0 	ldr	pc, [ip, #1760]!	; 0x6e0

00010638 <TEEC_InitializeContext@plt>:
   10638:	e28fc600 	add	ip, pc, #0, 12
   1063c:	e28cca11 	add	ip, ip, #69632	; 0x11000
   10640:	e5bcf6d8 	ldr	pc, [ip, #1752]!	; 0x6d8

00010644 <TEEC_OpenSession@plt>:
   10644:	e28fc600 	add	ip, pc, #0, 12
   10648:	e28cca11 	add	ip, ip, #69632	; 0x11000
   1064c:	e5bcf6d0 	ldr	pc, [ip, #1744]!	; 0x6d0

Disassembly of section .DATA_REGION_0__data:

00010650 <global_data>:
   10650:	00000171 	andeq	r0, r0, r1, ror r1

Disassembly of section .DATA_REGION_1__share:

00010654 <.DATA_REGION_1__sdata_start>:
   10654:	00000000 	andeq	r0, r0, r0

Disassembly of section .DATA_REGION_1__data:

00010658 <.DATA_REGION_1__data_start>:
   10658:	5f64636c 	svcpl	0x0064636c
   1065c:	69676562 	stmdbvs	r7!, {r1, r5, r6, r8, sl, sp, lr}^
   10660:	636c006e 	cmnvs	ip, #110	; 0x6e
   10664:	6c635f64 	stclvs	15, cr5, [r3], #-400	; 0xfffffe70
   10668:	00726165 	rsbseq	r6, r2, r5, ror #2
   1066c:	5f64636c 	svcpl	0x0064636c
   10670:	6e697270 	mcrvs	2, 3, r7, cr9, cr0, {3}
   10674:	636c0074 	cmnvs	ip, #116	; 0x74
   10678:	65735f64 	ldrbvs	r5, [r3, #-3940]!	; 0xfffff09c
   1067c:	72754374 	rsbsvc	r4, r5, #116, 6	; 0xd0000001
   10680:	00726f73 	rsbseq	r6, r2, r3, ror pc

Disassembly of section .CODE_REGION_1_:

00010684 <lcd_begin>:
   10684:	e92d4800 	push	{fp, lr}
   10688:	e1a0b00d 	mov	fp, sp
   1068c:	e24dd010 	sub	sp, sp, #16
   10690:	e59f3038 	ldr	r3, [pc, #56]	; 106d0 <.DATA_REGION_1__data_end+0x4c>
   10694:	e58d1008 	str	r1, [sp, #8]
   10698:	e50b0004 	str	r0, [fp, #-4]
   1069c:	e58d2004 	str	r2, [sp, #4]
   106a0:	e5931000 	ldr	r1, [r3]
   106a4:	e59f0028 	ldr	r0, [pc, #40]	; 106d4 <.DATA_REGION_1__data_end+0x50>
   106a8:	e51b2004 	ldr	r2, [fp, #-4]
   106ac:	e2811001 	add	r1, r1, #1
   106b0:	e5831000 	str	r1, [r3]
   106b4:	e59d3008 	ldr	r3, [sp, #8]
   106b8:	e59f1018 	ldr	r1, [pc, #24]	; 106d8 <.DATA_REGION_1__data_end+0x54>
   106bc:	e59dc004 	ldr	ip, [sp, #4]
   106c0:	e58dc000 	str	ip, [sp]
   106c4:	ebffffba 	bl	105b4 <printf@plt>
   106c8:	e1a0d00b 	mov	sp, fp
   106cc:	e8bd8800 	pop	{fp, pc}
   106d0:	00010650 	andeq	r0, r1, r0, asr r6
   106d4:	00011a50 	andeq	r1, r1, r0, asr sl
   106d8:	00010658 	andeq	r0, r1, r8, asr r6

000106dc <lcd_clear>:
   106dc:	e92d4800 	push	{fp, lr}
   106e0:	e1a0b00d 	mov	fp, sp
   106e4:	e24dd008 	sub	sp, sp, #8
   106e8:	e59f2014 	ldr	r2, [pc, #20]	; 10704 <lcd_clear+0x28>
   106ec:	e59f1014 	ldr	r1, [pc, #20]	; 10708 <lcd_clear+0x2c>
   106f0:	e58d0004 	str	r0, [sp, #4]
   106f4:	e1a00002 	mov	r0, r2
   106f8:	ebffffad 	bl	105b4 <printf@plt>
   106fc:	e1a0d00b 	mov	sp, fp
   10700:	e8bd8800 	pop	{fp, pc}
   10704:	00011aa1 	andeq	r1, r1, r1, lsr #21
   10708:	00010662 	andeq	r0, r1, r2, ror #12

0001070c <lcd_print>:
   1070c:	e92d4800 	push	{fp, lr}
   10710:	e1a0b00d 	mov	fp, sp
   10714:	e24dd010 	sub	sp, sp, #16
   10718:	e50b0004 	str	r0, [fp, #-4]
   1071c:	e58d1008 	str	r1, [sp, #8]
   10720:	e59fc024 	ldr	ip, [pc, #36]	; 1074c <lcd_print+0x40>
   10724:	e51be004 	ldr	lr, [fp, #-4]
   10728:	e59d3008 	ldr	r3, [sp, #8]
   1072c:	e59f101c 	ldr	r1, [pc, #28]	; 10750 <lcd_print+0x44>
   10730:	e58d2004 	str	r2, [sp, #4]
   10734:	e58d2000 	str	r2, [sp]
   10738:	e1a0000c 	mov	r0, ip
   1073c:	e1a0200e 	mov	r2, lr
   10740:	ebffff9b 	bl	105b4 <printf@plt>
   10744:	e1a0d00b 	mov	sp, fp
   10748:	e8bd8800 	pop	{fp, pc}
   1074c:	00011ac1 	andeq	r1, r1, r1, asr #21
   10750:	0001066c 	andeq	r0, r1, ip, ror #12

00010754 <lcd_setCursor>:
   10754:	e92d4800 	push	{fp, lr}
   10758:	e1a0b00d 	mov	fp, sp
   1075c:	e24dd010 	sub	sp, sp, #16
   10760:	e59fe028 	ldr	lr, [pc, #40]	; 10790 <lcd_setCursor+0x3c>
   10764:	e59fc028 	ldr	ip, [pc, #40]	; 10794 <lcd_setCursor+0x40>
   10768:	e58d1008 	str	r1, [sp, #8]
   1076c:	e1a03002 	mov	r3, r2
   10770:	e59d2008 	ldr	r2, [sp, #8]
   10774:	e50b0004 	str	r0, [fp, #-4]
   10778:	e1a0000e 	mov	r0, lr
   1077c:	e1a0100c 	mov	r1, ip
   10780:	e58d3004 	str	r3, [sp, #4]
   10784:	ebffff8a 	bl	105b4 <printf@plt>
   10788:	e1a0d00b 	mov	sp, fp
   1078c:	e8bd8800 	pop	{fp, pc}
   10790:	00011b03 	andeq	r1, r1, r3, lsl #22
   10794:	00010676 	andeq	r0, r1, r6, ror r6

Disassembly of section .DATA_REGION_2__share:

00010798 <.DATA_REGION_2__sdata_start>:
   10798:	00000000 	andeq	r0, r0, r0

Disassembly of section .DATA_REGION_2__data:

0001079c <ustepsPerML>:
   1079c:	00001aaa 	andeq	r1, r0, sl, lsr #21

000107a0 <motorDirPin>:
   107a0:	00000002 	andeq	r0, r0, r2

000107a4 <motorStepPin>:
   107a4:	00000003 	andeq	r0, r0, r3

000107a8 <adc_key_val>:
   107a8:	0000001e 	andeq	r0, r0, lr, lsl r0
   107ac:	00000096 	muleq	r0, r6, r0
   107b0:	00000168 	andeq	r0, r0, r8, ror #2
   107b4:	00000217 	andeq	r0, r0, r7, lsl r2
   107b8:	000002f8 	strdeq	r0, [r0], -r8

000107bc <NUM_KEYS>:
   107bc:	00000005 	andeq	r0, r0, r5

000107c0 <key>:
   107c0:	00000005 	andeq	r0, r0, r5

000107c4 <mLBolusSteps>:
   107c4:	3a83126f 	bcc	fe0d5188 <__bss_end__+0xfe0b33b8>
   107c8:	3ba3d70a 	blcc	fe9063f8 <__bss_end__+0xfe8e4628>
   107cc:	3c23d70a 	stccc	7, cr13, [r3], #-40	; 0xffffffd8
   107d0:	3d4ccccd 	stclcc	12, cr12, [ip, #-820]	; 0xfffffccc
   107d4:	3dcccccd 	stclcc	12, cr12, [ip, #820]	; 0x334
   107d8:	3f000000 	svccc	0x00000000
   107dc:	3f800000 	svccc	0x00800000
   107e0:	40a00000 	adcmi	r0, r0, r0
   107e4:	41200000 			; <UNDEFINED> instruction: 0x41200000

000107e8 <mLBolus>:
   107e8:	3f000000 	svccc	0x00000000

000107ec <mLBigBolus>:
   107ec:	3f800000 	svccc	0x00800000

000107f0 <mLBolusStepIdx>:
   107f0:	00000003 	andeq	r0, r0, r3

000107f4 <mLBolusStep>:
   107f4:	3d4ccccd 	stclcc	12, cr12, [ip, #-820]	; 0xfffffccc

000107f8 <keyRepeatDelay>:
   107f8:	00000190 	muleq	r0, r0, r1

000107fc <keyDebounce>:
   107fc:	0000007d 	andeq	r0, r0, sp, ror r0

00010800 <prevKey>:
   10800:	00000005 	andeq	r0, r0, r5

Disassembly of section .DATA_REGION_2__bss:

00010804 <triggerPin>:
   10804:	00000000 	andeq	r0, r0, r0

00010808 <bigTriggerPin>:
   10808:	00000000 	andeq	r0, r0, r0

0001080c <mLUsed>:
   1080c:	00000000 	andeq	r0, r0, r0

00010810 <lastKeyRepeatAt>:
   10810:	00000000 	andeq	r0, r0, r0

00010814 <uiState>:
   10814:	00000000 	andeq	r0, r0, r0

00010818 <prevBigTrigger>:
   10818:	00000000 	andeq	r0, r0, r0

0001081c <prevTrigger>:
   1081c:	00000000 	andeq	r0, r0, r0

00010820 <serialStr>:
	...

00010870 <serialStrReady>:
   10870:	00000000 	andeq	r0, r0, r0

00010874 <serialStrLen>:
   10874:	00000000 	andeq	r0, r0, r0

Disassembly of section .CODE_REGION_2_:

00010878 <setup>:
   10878:	e92d4830 	push	{r4, r5, fp, lr}
   1087c:	e28db008 	add	fp, sp, #8
   10880:	e59f4088 	ldr	r4, [pc, #136]	; 10910 <.DATA_REGION_2__bss_end+0x98>
   10884:	e3a01010 	mov	r1, #16
   10888:	e3a02002 	mov	r2, #2
   1088c:	e1a00004 	mov	r0, r4
   10890:	ebffff7b 	bl	10684 <.DATA_REGION_1__data_end>
   10894:	e1a00004 	mov	r0, r4
   10898:	ebffff8f 	bl	106dc <lcd_clear>
   1089c:	e59f1070 	ldr	r1, [pc, #112]	; 10914 <.DATA_REGION_2__bss_end+0x9c>
   108a0:	e1a00004 	mov	r0, r4
   108a4:	e3a02010 	mov	r2, #16
   108a8:	ebffff97 	bl	1070c <lcd_print>
   108ac:	e59f4064 	ldr	r4, [pc, #100]	; 10918 <.DATA_REGION_2__bss_end+0xa0>
   108b0:	e3a01000 	mov	r1, #0
   108b4:	e5940000 	ldr	r0, [r4]
   108b8:	eb000297 	bl	1131c <.DATA_REGION_4__data_end>
   108bc:	e59f5058 	ldr	r5, [pc, #88]	; 1091c <.DATA_REGION_2__bss_end+0xa4>
   108c0:	e3a01000 	mov	r1, #0
   108c4:	e5950000 	ldr	r0, [r5]
   108c8:	eb000293 	bl	1131c <.DATA_REGION_4__data_end>
   108cc:	e5940000 	ldr	r0, [r4]
   108d0:	e3a01000 	mov	r1, #0
   108d4:	eb0002b0 	bl	1139c <digitalWrite>
   108d8:	e5950000 	ldr	r0, [r5]
   108dc:	e3a01000 	mov	r1, #0
   108e0:	eb0002ad 	bl	1139c <digitalWrite>
   108e4:	e59f0034 	ldr	r0, [pc, #52]	; 10920 <.DATA_REGION_2__bss_end+0xa8>
   108e8:	e3a01001 	mov	r1, #1
   108ec:	e5900000 	ldr	r0, [r0]
   108f0:	eb000289 	bl	1131c <.DATA_REGION_4__data_end>
   108f4:	e59f0028 	ldr	r0, [pc, #40]	; 10924 <.DATA_REGION_2__bss_end+0xac>
   108f8:	e3a01001 	mov	r1, #1
   108fc:	e5900000 	ldr	r0, [r0]
   10900:	eb000285 	bl	1131c <.DATA_REGION_4__data_end>
   10904:	e3a00ce1 	mov	r0, #57600	; 0xe100
   10908:	eb0002a8 	bl	113b0 <Serial_begin>
   1090c:	e8bd8830 	pop	{r4, r5, fp, pc}
   10910:	00021d74 	andeq	r1, r2, r4, ror sp
   10914:	000118f0 	strdeq	r1, [r1], -r0
   10918:	00010804 	andeq	r0, r1, r4, lsl #16
   1091c:	00010808 	andeq	r0, r1, r8, lsl #16
   10920:	000107a0 	andeq	r0, r1, r0, lsr #15
   10924:	000107a4 	andeq	r0, r1, r4, lsr #15

00010928 <loop>:
   10928:	e92d4830 	push	{r4, r5, fp, lr}
   1092c:	e28db008 	add	fp, sp, #8
   10930:	e24dd010 	sub	sp, sp, #16
   10934:	ee000a10 	vmov	s0, r0
   10938:	ed9f1b1e 	vldr	d1, [pc, #120]	; 109b8 <loop+0x90>
   1093c:	e59f1084 	ldr	r1, [pc, #132]	; 109c8 <loop+0xa0>
   10940:	e59f5078 	ldr	r5, [pc, #120]	; 109c0 <loop+0x98>
   10944:	e59f4078 	ldr	r4, [pc, #120]	; 109c4 <loop+0x9c>
   10948:	eeb80bc0 	vcvt.f64.s32	d0, s0
   1094c:	e58d000c 	str	r0, [sp, #12]
   10950:	e3a0002b 	mov	r0, #43	; 0x2b
   10954:	e5c10000 	strb	r0, [r1]
   10958:	e3a00001 	mov	r0, #1
   1095c:	e5c50000 	strb	r0, [r5]
   10960:	ee200b01 	vmul.f64	d0, d0, d1
   10964:	eeb70bc0 	vcvt.f32.f64	s0, d0
   10968:	ed840a00 	vstr	s0, [r4]
   1096c:	eb0002e6 	bl	1150c <usecs>
   10970:	e58d0008 	str	r0, [sp, #8]
   10974:	e5d50000 	ldrb	r0, [r5]
   10978:	e3100001 	tst	r0, #1
   1097c:	1b000013 	blne	109d0 <processSerial>
   10980:	eb0002e1 	bl	1150c <usecs>
   10984:	ed940a00 	vldr	s0, [r4]
   10988:	e59d5008 	ldr	r5, [sp, #8]
   1098c:	e59f1038 	ldr	r1, [pc, #56]	; 109cc <loop+0xa4>
   10990:	e58d0004 	str	r0, [sp, #4]
   10994:	eeb70ac0 	vcvt.f64.f32	d0, s0
   10998:	e0400005 	sub	r0, r0, r5
   1099c:	e58d0000 	str	r0, [sp]
   109a0:	e1a00001 	mov	r0, r1
   109a4:	ec532b10 	vmov	r2, r3, d0
   109a8:	ebffff01 	bl	105b4 <printf@plt>
   109ac:	e24bd008 	sub	sp, fp, #8
   109b0:	e8bd8830 	pop	{r4, r5, fp, pc}
   109b4:	e1a00000 	nop			; (mov r0, r0)
   109b8:	d2f1a9fc 	rscsle	sl, r1, #252, 18	; 0x3f0000
   109bc:	3f50624d 	svccc	0x0050624d
   109c0:	00010870 	andeq	r0, r1, r0, ror r8
   109c4:	000107e8 	andeq	r0, r1, r8, ror #15
   109c8:	00010820 	andeq	r0, r1, r0, lsr #16
   109cc:	00011901 	andeq	r1, r1, r1, lsl #18

000109d0 <processSerial>:
   109d0:	e92d4c10 	push	{r4, sl, fp, lr}
   109d4:	e28db008 	add	fp, sp, #8
   109d8:	e24dd008 	sub	sp, sp, #8
   109dc:	e59f00c4 	ldr	r0, [pc, #196]	; 10aa8 <processSerial+0xd8>
   109e0:	e5d01000 	ldrb	r1, [r0]
   109e4:	e351002b 	cmp	r1, #43	; 0x2b
   109e8:	1a000001 	bne	109f4 <processSerial+0x24>
   109ec:	e3a00000 	mov	r0, #0
   109f0:	ea000003 	b	10a04 <processSerial+0x34>
   109f4:	e5d00000 	ldrb	r0, [r0]
   109f8:	e350002d 	cmp	r0, #45	; 0x2d
   109fc:	1a000009 	bne	10a28 <processSerial+0x58>
   10a00:	e3a00001 	mov	r0, #1
   10a04:	eb00002d 	bl	10ac0 <bolus>
   10a08:	eb000082 	bl	10c18 <updateScreen>
   10a0c:	e59f00a8 	ldr	r0, [pc, #168]	; 10abc <processSerial+0xec>
   10a10:	e59f1094 	ldr	r1, [pc, #148]	; 10aac <processSerial+0xdc>
   10a14:	e3a02000 	mov	r2, #0
   10a18:	e5c02000 	strb	r2, [r0]
   10a1c:	e5812000 	str	r2, [r1]
   10a20:	e24bd008 	sub	sp, fp, #8
   10a24:	e8bd8c10 	pop	{r4, sl, fp, pc}
   10a28:	e59f407c 	ldr	r4, [pc, #124]	; 10aac <processSerial+0xdc>
   10a2c:	e59f0074 	ldr	r0, [pc, #116]	; 10aa8 <processSerial+0xd8>
   10a30:	e5941000 	ldr	r1, [r4]
   10a34:	eb0002c9 	bl	11560 <toUInt>
   10a38:	e3500000 	cmp	r0, #0
   10a3c:	0a00000c 	beq	10a74 <processSerial+0xa4>
   10a40:	e59f0060 	ldr	r0, [pc, #96]	; 10aa8 <processSerial+0xd8>
   10a44:	e5941000 	ldr	r1, [r4]
   10a48:	eb0002c4 	bl	11560 <toUInt>
   10a4c:	ee000a10 	vmov	s0, r0
   10a50:	ed9f1b12 	vldr	d1, [pc, #72]	; 10aa0 <processSerial+0xd0>
   10a54:	e59f105c 	ldr	r1, [pc, #92]	; 10ab8 <processSerial+0xe8>
   10a58:	eeb80ac0 	vcvt.f32.s32	s0, s0
   10a5c:	e58d0004 	str	r0, [sp, #4]
   10a60:	eeb70ac0 	vcvt.f64.f32	d0, s0
   10a64:	ee800b01 	vdiv.f64	d0, d0, d1
   10a68:	eeb70bc0 	vcvt.f32.f64	s0, d0
   10a6c:	ed810a00 	vstr	s0, [r1]
   10a70:	eaffffe4 	b	10a08 <processSerial+0x38>
   10a74:	e59f0034 	ldr	r0, [pc, #52]	; 10ab0 <processSerial+0xe0>
   10a78:	e3a01012 	mov	r1, #18
   10a7c:	eb000273 	bl	11450 <Serial_write>
   10a80:	e59f0020 	ldr	r0, [pc, #32]	; 10aa8 <processSerial+0xd8>
   10a84:	e5941000 	ldr	r1, [r4]
   10a88:	eb000270 	bl	11450 <Serial_write>
   10a8c:	e59f0020 	ldr	r0, [pc, #32]	; 10ab4 <processSerial+0xe4>
   10a90:	e3a01002 	mov	r1, #2
   10a94:	eb00026d 	bl	11450 <Serial_write>
   10a98:	eaffffdb 	b	10a0c <processSerial+0x3c>
   10a9c:	e1a00000 	nop			; (mov r0, r0)
   10aa0:	00000000 	andeq	r0, r0, r0
   10aa4:	408f4000 	addmi	r4, pc, r0
   10aa8:	00010820 	andeq	r0, r1, r0, lsr #16
   10aac:	00010874 	andeq	r0, r1, r4, ror r8
   10ab0:	00011920 	andeq	r1, r1, r0, lsr #18
   10ab4:	00011933 	andeq	r1, r1, r3, lsr r9
   10ab8:	000107e8 	andeq	r0, r1, r8, ror #15
   10abc:	00010870 	andeq	r0, r1, r0, ror r8

00010ac0 <bolus>:
   10ac0:	e92d4830 	push	{r4, r5, fp, lr}
   10ac4:	e28db008 	add	fp, sp, #8
   10ac8:	e24dd010 	sub	sp, sp, #16
   10acc:	e59f512c 	ldr	r5, [pc, #300]	; 10c00 <bolus+0x140>
   10ad0:	e58d000c 	str	r0, [sp, #12]
   10ad4:	e59f4128 	ldr	r4, [pc, #296]	; 10c04 <bolus+0x144>
   10ad8:	ed950a00 	vldr	s0, [r5]
   10adc:	eeb80ac0 	vcvt.f32.s32	s0, s0
   10ae0:	ed941a00 	vldr	s2, [r4]
   10ae4:	ee210a00 	vmul.f32	s0, s2, s0
   10ae8:	eebd0ac0 	vcvt.s32.f32	s0, s0
   10aec:	e59d000c 	ldr	r0, [sp, #12]
   10af0:	e3500000 	cmp	r0, #0
   10af4:	ed8d0a02 	vstr	s0, [sp, #8]
   10af8:	0a000013 	beq	10b4c <bolus+0x8c>
   10afc:	e59d000c 	ldr	r0, [sp, #12]
   10b00:	e3500001 	cmp	r0, #1
   10b04:	1a000023 	bne	10b98 <bolus+0xd8>
   10b08:	eb0002b0 	bl	115d0 <led_off>
   10b0c:	e59f00f4 	ldr	r0, [pc, #244]	; 10c08 <bolus+0x148>
   10b10:	e3a01001 	mov	r1, #1
   10b14:	e5900000 	ldr	r0, [r0]
   10b18:	eb00021f 	bl	1139c <digitalWrite>
   10b1c:	e59f00e8 	ldr	r0, [pc, #232]	; 10c0c <bolus+0x14c>
   10b20:	ed940a00 	vldr	s0, [r4]
   10b24:	ed901a00 	vldr	s2, [r0]
   10b28:	ee310a40 	vsub.f32	s0, s2, s0
   10b2c:	eeb50ac0 	vcmpe.f32	s0, #0.0
   10b30:	eef1fa10 	vmrs	APSR_nzcv, fpscr
   10b34:	da000015 	ble	10b90 <bolus+0xd0>
   10b38:	ed940a00 	vldr	s0, [r4]
   10b3c:	ed901a00 	vldr	s2, [r0]
   10b40:	ee310a40 	vsub.f32	s0, s2, s0
   10b44:	ed800a00 	vstr	s0, [r0]
   10b48:	ea000012 	b	10b98 <bolus+0xd8>
   10b4c:	eb000292 	bl	1159c <.DATA_REGION_5__data_end>
   10b50:	e59f00b0 	ldr	r0, [pc, #176]	; 10c08 <bolus+0x148>
   10b54:	e3a01000 	mov	r1, #0
   10b58:	e5900000 	ldr	r0, [r0]
   10b5c:	eb00020e 	bl	1139c <digitalWrite>
   10b60:	ed950a00 	vldr	s0, [r5]
   10b64:	e59f00a0 	ldr	r0, [pc, #160]	; 10c0c <bolus+0x14c>
   10b68:	eeb80ac0 	vcvt.f32.s32	s0, s0
   10b6c:	ed941a00 	vldr	s2, [r4]
   10b70:	ee210a00 	vmul.f32	s0, s2, s0
   10b74:	eebd0ac0 	vcvt.s32.f32	s0, s0
   10b78:	ed901a00 	vldr	s2, [r0]
   10b7c:	ed8d0a02 	vstr	s0, [sp, #8]
   10b80:	ed940a00 	vldr	s0, [r4]
   10b84:	ee310a00 	vadd.f32	s0, s2, s0
   10b88:	ed800a00 	vstr	s0, [r0]
   10b8c:	ea000001 	b	10b98 <bolus+0xd8>
   10b90:	e3a01000 	mov	r1, #0
   10b94:	e5801000 	str	r1, [r0]
   10b98:	e59f4070 	ldr	r4, [pc, #112]	; 10c10 <bolus+0x150>
   10b9c:	e3a007b2 	mov	r0, #46661632	; 0x2c80000
   10ba0:	e3800101 	orr	r0, r0, #1073741824	; 0x40000000
   10ba4:	e58d0004 	str	r0, [sp, #4]
   10ba8:	e3a00000 	mov	r0, #0
   10bac:	e58d0000 	str	r0, [sp]
   10bb0:	ea00000c 	b	10be8 <bolus+0x128>
   10bb4:	e5940000 	ldr	r0, [r4]
   10bb8:	e3a01000 	mov	r1, #0
   10bbc:	eb0001f6 	bl	1139c <digitalWrite>
   10bc0:	ed9d0a01 	vldr	s0, [sp, #4]
   10bc4:	eb00025c 	bl	1153c <delayMicroseconds>
   10bc8:	e5940000 	ldr	r0, [r4]
   10bcc:	e3a01001 	mov	r1, #1
   10bd0:	eb0001f1 	bl	1139c <digitalWrite>
   10bd4:	ed9d0a01 	vldr	s0, [sp, #4]
   10bd8:	eb000257 	bl	1153c <delayMicroseconds>
   10bdc:	e59d0000 	ldr	r0, [sp]
   10be0:	e2800001 	add	r0, r0, #1
   10be4:	e58d0000 	str	r0, [sp]
   10be8:	e59d0008 	ldr	r0, [sp, #8]
   10bec:	e59d1000 	ldr	r1, [sp]
   10bf0:	e1510000 	cmp	r1, r0
   10bf4:	baffffee 	blt	10bb4 <bolus+0xf4>
   10bf8:	e24bd008 	sub	sp, fp, #8
   10bfc:	e8bd8830 	pop	{r4, r5, fp, pc}
   10c00:	0001079c 	muleq	r1, ip, r7
   10c04:	000107e8 	andeq	r0, r1, r8, ror #15
   10c08:	000107a0 	andeq	r0, r1, r0, lsr #15
   10c0c:	0001080c 	andeq	r0, r1, ip, lsl #16
   10c10:	000107a4 	andeq	r0, r1, r4, lsr #15
   10c14:	e1a00000 	nop			; (mov r0, r0)

00010c18 <updateScreen>:
   10c18:	e92d4c10 	push	{r4, sl, fp, lr}
   10c1c:	e28db008 	add	fp, sp, #8
   10c20:	ed2d8b04 	vpush	{d8-d9}
   10c24:	e24dd0a8 	sub	sp, sp, #168	; 0xa8
   10c28:	e59f0158 	ldr	r0, [pc, #344]	; 10d88 <updateScreen+0x170>
   10c2c:	e3a01000 	mov	r1, #0
   10c30:	e58d1004 	str	r1, [sp, #4]
   10c34:	e58d1000 	str	r1, [sp]
   10c38:	e5901000 	ldr	r1, [r0]
   10c3c:	e3510000 	cmp	r1, #0
   10c40:	0a000013 	beq	10c94 <updateScreen+0x7c>
   10c44:	e5900000 	ldr	r0, [r0]
   10c48:	e3500001 	cmp	r0, #1
   10c4c:	1a000032 	bne	10d1c <updateScreen+0x104>
   10c50:	e59f1134 	ldr	r1, [pc, #308]	; 10d8c <updateScreen+0x174>
   10c54:	e28d0058 	add	r0, sp, #88	; 0x58
   10c58:	ebfffe6d 	bl	10614 <sprintf@plt>
   10c5c:	e59f112c 	ldr	r1, [pc, #300]	; 10d90 <updateScreen+0x178>
   10c60:	e58d0004 	str	r0, [sp, #4]
   10c64:	ed9f1b43 	vldr	d1, [pc, #268]	; 10d78 <updateScreen+0x160>
   10c68:	ed910a00 	vldr	s0, [r1]
   10c6c:	ed9f3b43 	vldr	d3, [pc, #268]	; 10d80 <updateScreen+0x168>
   10c70:	e59f111c 	ldr	r1, [pc, #284]	; 10d94 <updateScreen+0x17c>
   10c74:	eeb72ac0 	vcvt.f64.f32	d2, s0
   10c78:	eebd0ac0 	vcvt.s32.f32	s0, s0
   10c7c:	ee222b01 	vmul.f64	d2, d2, d1
   10c80:	ee102a10 	vmov	r2, s0
   10c84:	eeb80bc0 	vcvt.f64.s32	d0, s0
   10c88:	ee200b01 	vmul.f64	d0, d0, d1
   10c8c:	ee321b03 	vadd.f64	d1, d2, d3
   10c90:	ea00001b 	b	10d04 <updateScreen+0xec>
   10c94:	e59f00fc 	ldr	r0, [pc, #252]	; 10d98 <updateScreen+0x180>
   10c98:	ed9f8b36 	vldr	d8, [pc, #216]	; 10d78 <updateScreen+0x160>
   10c9c:	ed9f9b37 	vldr	d9, [pc, #220]	; 10d80 <updateScreen+0x168>
   10ca0:	ed900a00 	vldr	s0, [r0]
   10ca4:	e59f10f0 	ldr	r1, [pc, #240]	; 10d9c <updateScreen+0x184>
   10ca8:	e28d0058 	add	r0, sp, #88	; 0x58
   10cac:	eeb71ac0 	vcvt.f64.f32	d1, s0
   10cb0:	eebd0ac0 	vcvt.s32.f32	s0, s0
   10cb4:	ee211b08 	vmul.f64	d1, d1, d8
   10cb8:	ee102a10 	vmov	r2, s0
   10cbc:	eeb80bc0 	vcvt.f64.s32	d0, s0
   10cc0:	ee311b09 	vadd.f64	d1, d1, d9
   10cc4:	ee200b08 	vmul.f64	d0, d0, d8
   10cc8:	ee310b40 	vsub.f64	d0, d1, d0
   10ccc:	eebd0bc0 	vcvt.s32.f64	s0, d0
   10cd0:	ee103a10 	vmov	r3, s0
   10cd4:	ebfffe4e 	bl	10614 <sprintf@plt>
   10cd8:	e59f10c0 	ldr	r1, [pc, #192]	; 10da0 <updateScreen+0x188>
   10cdc:	e58d0004 	str	r0, [sp, #4]
   10ce0:	ed910a00 	vldr	s0, [r1]
   10ce4:	e59f10b8 	ldr	r1, [pc, #184]	; 10da4 <updateScreen+0x18c>
   10ce8:	eeb71ac0 	vcvt.f64.f32	d1, s0
   10cec:	eebd0ac0 	vcvt.s32.f32	s0, s0
   10cf0:	ee211b08 	vmul.f64	d1, d1, d8
   10cf4:	ee102a10 	vmov	r2, s0
   10cf8:	eeb80bc0 	vcvt.f64.s32	d0, s0
   10cfc:	ee311b09 	vadd.f64	d1, d1, d9
   10d00:	ee200b08 	vmul.f64	d0, d0, d8
   10d04:	ee310b40 	vsub.f64	d0, d1, d0
   10d08:	eebd0bc0 	vcvt.s32.f64	s0, d0
   10d0c:	ee103a10 	vmov	r3, s0
   10d10:	e28d0008 	add	r0, sp, #8
   10d14:	ebfffe3e 	bl	10614 <sprintf@plt>
   10d18:	e58d0000 	str	r0, [sp]
   10d1c:	e59f4084 	ldr	r4, [pc, #132]	; 10da8 <updateScreen+0x190>
   10d20:	e1a00004 	mov	r0, r4
   10d24:	ebfffe6c 	bl	106dc <lcd_clear>
   10d28:	e1a00004 	mov	r0, r4
   10d2c:	e3a01000 	mov	r1, #0
   10d30:	e3a02000 	mov	r2, #0
   10d34:	ebfffe86 	bl	10754 <lcd_setCursor>
   10d38:	e59d2004 	ldr	r2, [sp, #4]
   10d3c:	e28d1058 	add	r1, sp, #88	; 0x58
   10d40:	e1a00004 	mov	r0, r4
   10d44:	ebfffe70 	bl	1070c <lcd_print>
   10d48:	e1a00004 	mov	r0, r4
   10d4c:	e3a01000 	mov	r1, #0
   10d50:	e3a02001 	mov	r2, #1
   10d54:	ebfffe7e 	bl	10754 <lcd_setCursor>
   10d58:	e59d2000 	ldr	r2, [sp]
   10d5c:	e28d1008 	add	r1, sp, #8
   10d60:	e1a00004 	mov	r0, r4
   10d64:	ebfffe68 	bl	1070c <lcd_print>
   10d68:	e24bd018 	sub	sp, fp, #24
   10d6c:	ecbd8b04 	vpop	{d8-d9}
   10d70:	e8bd8c10 	pop	{r4, sl, fp, pc}
   10d74:	e1a00000 	nop			; (mov r0, r0)
   10d78:	00000000 	andeq	r0, r0, r0
   10d7c:	408f4000 	addmi	r4, pc, r0
   10d80:	00000000 	andeq	r0, r0, r0
   10d84:	3fe00000 	svccc	0x00e00000
   10d88:	00010814 	andeq	r0, r1, r4, lsl r8
   10d8c:	00011953 	andeq	r1, r1, r3, asr r9
   10d90:	000107f4 	strdeq	r0, [r1], -r4
   10d94:	00011963 	andeq	r1, r1, r3, ror #18
   10d98:	0001080c 	andeq	r0, r1, ip, lsl #16
   10d9c:	00011936 	andeq	r1, r1, r6, lsr r9
   10da0:	000107e8 	andeq	r0, r1, r8, ror #15
   10da4:	00011944 	andeq	r1, r1, r4, asr #18
   10da8:	00021d74 	andeq	r1, r2, r4, ror sp

00010dac <checkTriggers>:
   10dac:	e92d4c10 	push	{r4, sl, fp, lr}
   10db0:	e28db008 	add	fp, sp, #8
   10db4:	e24dd010 	sub	sp, sp, #16
   10db8:	e59f00a0 	ldr	r0, [pc, #160]	; 10e60 <checkTriggers+0xb4>
   10dbc:	e5900000 	ldr	r0, [r0]
   10dc0:	eb000164 	bl	11358 <digitalRead>
   10dc4:	e58d000c 	str	r0, [sp, #12]
   10dc8:	e3500000 	cmp	r0, #0
   10dcc:	1a000006 	bne	10dec <checkTriggers+0x40>
   10dd0:	e59f008c 	ldr	r0, [pc, #140]	; 10e64 <checkTriggers+0xb8>
   10dd4:	e5900000 	ldr	r0, [r0]
   10dd8:	e3500001 	cmp	r0, #1
   10ddc:	1a000002 	bne	10dec <checkTriggers+0x40>
   10de0:	e3a00000 	mov	r0, #0
   10de4:	ebffff35 	bl	10ac0 <bolus>
   10de8:	ebffff8a 	bl	10c18 <updateScreen>
   10dec:	e59f0074 	ldr	r0, [pc, #116]	; 10e68 <checkTriggers+0xbc>
   10df0:	e59f106c 	ldr	r1, [pc, #108]	; 10e64 <checkTriggers+0xb8>
   10df4:	e59d200c 	ldr	r2, [sp, #12]
   10df8:	e5900000 	ldr	r0, [r0]
   10dfc:	e5812000 	str	r2, [r1]
   10e00:	eb000154 	bl	11358 <digitalRead>
   10e04:	e58d0008 	str	r0, [sp, #8]
   10e08:	e3500000 	cmp	r0, #0
   10e0c:	1a00000e 	bne	10e4c <checkTriggers+0xa0>
   10e10:	e59f0054 	ldr	r0, [pc, #84]	; 10e6c <checkTriggers+0xc0>
   10e14:	e5900000 	ldr	r0, [r0]
   10e18:	e3500001 	cmp	r0, #1
   10e1c:	1a00000a 	bne	10e4c <checkTriggers+0xa0>
   10e20:	e59f004c 	ldr	r0, [pc, #76]	; 10e74 <checkTriggers+0xc8>
   10e24:	e59f4044 	ldr	r4, [pc, #68]	; 10e70 <checkTriggers+0xc4>
   10e28:	e5900000 	ldr	r0, [r0]
   10e2c:	e5941000 	ldr	r1, [r4]
   10e30:	e5840000 	str	r0, [r4]
   10e34:	e3a00000 	mov	r0, #0
   10e38:	e58d1004 	str	r1, [sp, #4]
   10e3c:	ebffff1f 	bl	10ac0 <bolus>
   10e40:	e59d0004 	ldr	r0, [sp, #4]
   10e44:	e5840000 	str	r0, [r4]
   10e48:	ebffff72 	bl	10c18 <updateScreen>
   10e4c:	e59f0018 	ldr	r0, [pc, #24]	; 10e6c <checkTriggers+0xc0>
   10e50:	e59d1008 	ldr	r1, [sp, #8]
   10e54:	e5801000 	str	r1, [r0]
   10e58:	e24bd008 	sub	sp, fp, #8
   10e5c:	e8bd8c10 	pop	{r4, sl, fp, pc}
   10e60:	00010804 	andeq	r0, r1, r4, lsl #16
   10e64:	0001081c 	andeq	r0, r1, ip, lsl r8
   10e68:	00010808 	andeq	r0, r1, r8, lsl #16
   10e6c:	00010818 	andeq	r0, r1, r8, lsl r8
   10e70:	000107e8 	andeq	r0, r1, r8, ror #15
   10e74:	000107ec 	andeq	r0, r1, ip, ror #15

00010e78 <readSerial>:
   10e78:	e92d48f0 	push	{r4, r5, r6, r7, fp, lr}
   10e7c:	e28db010 	add	fp, sp, #16
   10e80:	e24dd008 	sub	sp, sp, #8
   10e84:	e59f405c 	ldr	r4, [pc, #92]	; 10ee8 <readSerial+0x70>
   10e88:	e59f6050 	ldr	r6, [pc, #80]	; 10ee0 <readSerial+0x68>
   10e8c:	e59f7050 	ldr	r7, [pc, #80]	; 10ee4 <readSerial+0x6c>
   10e90:	e3a05001 	mov	r5, #1
   10e94:	ea000005 	b	10eb0 <readSerial+0x38>
   10e98:	e5961000 	ldr	r1, [r6]
   10e9c:	e5dd0007 	ldrb	r0, [sp, #7]
   10ea0:	e7c70001 	strb	r0, [r7, r1]
   10ea4:	e5960000 	ldr	r0, [r6]
   10ea8:	e2800001 	add	r0, r0, #1
   10eac:	e5860000 	str	r0, [r6]
   10eb0:	eb00014a 	bl	113e0 <Serial_available>
   10eb4:	e3500000 	cmp	r0, #0
   10eb8:	0a000006 	beq	10ed8 <readSerial+0x60>
   10ebc:	eb00015b 	bl	11430 <Serial_read>
   10ec0:	e5cd0007 	strb	r0, [sp, #7]
   10ec4:	e5dd0007 	ldrb	r0, [sp, #7]
   10ec8:	e350001f 	cmp	r0, #31
   10ecc:	cafffff1 	bgt	10e98 <readSerial+0x20>
   10ed0:	e5c45000 	strb	r5, [r4]
   10ed4:	eafffff5 	b	10eb0 <readSerial+0x38>
   10ed8:	e24bd010 	sub	sp, fp, #16
   10edc:	e8bd88f0 	pop	{r4, r5, r6, r7, fp, pc}
   10ee0:	00010874 	andeq	r0, r1, r4, ror r8
   10ee4:	00010820 	andeq	r0, r1, r0, lsr #16
   10ee8:	00010870 	andeq	r0, r1, r0, ror r8

00010eec <readKey>:
   10eec:	e92d4c70 	push	{r4, r5, r6, sl, fp, lr}
   10ef0:	e28db010 	add	fp, sp, #16
   10ef4:	e24dd010 	sub	sp, sp, #16
   10ef8:	e3a00000 	mov	r0, #0
   10efc:	e3a06000 	mov	r6, #0
   10f00:	eb000162 	bl	11490 <analogRead>
   10f04:	e59f10b4 	ldr	r1, [pc, #180]	; 10fc0 <readKey+0xd4>
   10f08:	e5810000 	str	r0, [r1]
   10f0c:	eb000031 	bl	10fd8 <get_key>
   10f10:	e59f40ac 	ldr	r4, [pc, #172]	; 10fc4 <readKey+0xd8>
   10f14:	e5840000 	str	r0, [r4]
   10f18:	eb00016b 	bl	114cc <millis>
   10f1c:	e59f50a4 	ldr	r5, [pc, #164]	; 10fc8 <readKey+0xdc>
   10f20:	e59f10a4 	ldr	r1, [pc, #164]	; 10fcc <readKey+0xe0>
   10f24:	e58d000c 	str	r0, [sp, #12]
   10f28:	e5cd6007 	strb	r6, [sp, #7]
   10f2c:	e5952000 	ldr	r2, [r5]
   10f30:	e0400002 	sub	r0, r0, r2
   10f34:	e58d0008 	str	r0, [sp, #8]
   10f38:	e5940000 	ldr	r0, [r4]
   10f3c:	e5912000 	ldr	r2, [r1]
   10f40:	e1520000 	cmp	r2, r0
   10f44:	1a000005 	bne	10f60 <readKey+0x74>
   10f48:	e59f0080 	ldr	r0, [pc, #128]	; 10fd0 <readKey+0xe4>
   10f4c:	e59d2008 	ldr	r2, [sp, #8]
   10f50:	e5900000 	ldr	r0, [r0]
   10f54:	e1520000 	cmp	r2, r0
   10f58:	c3a00001 	movgt	r0, #1
   10f5c:	c5cd0007 	strbgt	r0, [sp, #7]
   10f60:	e5910000 	ldr	r0, [r1]
   10f64:	e3500005 	cmp	r0, #5
   10f68:	1a000005 	bne	10f84 <readKey+0x98>
   10f6c:	e59f0060 	ldr	r0, [pc, #96]	; 10fd4 <readKey+0xe8>
   10f70:	e59d2008 	ldr	r2, [sp, #8]
   10f74:	e5900000 	ldr	r0, [r0]
   10f78:	e1520000 	cmp	r2, r0
   10f7c:	c3a00001 	movgt	r0, #1
   10f80:	c5cd0007 	strbgt	r0, [sp, #7]
   10f84:	e5940000 	ldr	r0, [r4]
   10f88:	e3500005 	cmp	r0, #5
   10f8c:	03a00000 	moveq	r0, #0
   10f90:	05cd0007 	strbeq	r0, [sp, #7]
   10f94:	e5940000 	ldr	r0, [r4]
   10f98:	e5810000 	str	r0, [r1]
   10f9c:	e5dd0007 	ldrb	r0, [sp, #7]
   10fa0:	e3100001 	tst	r0, #1
   10fa4:	0a000003 	beq	10fb8 <readKey+0xcc>
   10fa8:	e5940000 	ldr	r0, [r4]
   10fac:	eb000029 	bl	11058 <doKeyAction>
   10fb0:	e59d000c 	ldr	r0, [sp, #12]
   10fb4:	e5850000 	str	r0, [r5]
   10fb8:	e24bd010 	sub	sp, fp, #16
   10fbc:	e8bd8c70 	pop	{r4, r5, r6, sl, fp, pc}
   10fc0:	00021d70 	andeq	r1, r2, r0, ror sp
   10fc4:	000107c0 	andeq	r0, r1, r0, asr #15
   10fc8:	00010810 	andeq	r0, r1, r0, lsl r8
   10fcc:	00010800 	andeq	r0, r1, r0, lsl #16
   10fd0:	000107f8 	strdeq	r0, [r1], -r8
   10fd4:	000107fc 	strdeq	r0, [r1], -ip

00010fd8 <get_key>:
   10fd8:	e24dd00c 	sub	sp, sp, #12
   10fdc:	e58d0004 	str	r0, [sp, #4]
   10fe0:	e3a00000 	mov	r0, #0
   10fe4:	e58d0000 	str	r0, [sp]
   10fe8:	e59f0060 	ldr	r0, [pc, #96]	; 11050 <get_key+0x78>
   10fec:	e59f1060 	ldr	r1, [pc, #96]	; 11054 <get_key+0x7c>
   10ff0:	ea000002 	b	11000 <get_key+0x28>
   10ff4:	e59d2000 	ldr	r2, [sp]
   10ff8:	e2822001 	add	r2, r2, #1
   10ffc:	e58d2000 	str	r2, [sp]
   11000:	e59d2000 	ldr	r2, [sp]
   11004:	e5903000 	ldr	r3, [r0]
   11008:	e1520003 	cmp	r2, r3
   1100c:	aa000005 	bge	11028 <get_key+0x50>
   11010:	e59d2000 	ldr	r2, [sp]
   11014:	e59d3004 	ldr	r3, [sp, #4]
   11018:	e7912102 	ldr	r2, [r1, r2, lsl #2]
   1101c:	e1530002 	cmp	r3, r2
   11020:	2afffff3 	bcs	10ff4 <get_key+0x1c>
   11024:	ea000004 	b	1103c <get_key+0x64>
   11028:	e59d1000 	ldr	r1, [sp]
   1102c:	e5900000 	ldr	r0, [r0]
   11030:	e1510000 	cmp	r1, r0
   11034:	a3a00005 	movge	r0, #5
   11038:	a58d0000 	strge	r0, [sp]
   1103c:	e59d0000 	ldr	r0, [sp]
   11040:	e58d0008 	str	r0, [sp, #8]
   11044:	e59d0008 	ldr	r0, [sp, #8]
   11048:	e28dd00c 	add	sp, sp, #12
   1104c:	e12fff1e 	bx	lr
   11050:	000107bc 			; <UNDEFINED> instruction: 0x000107bc
   11054:	000107a8 	andeq	r0, r1, r8, lsr #15

00011058 <doKeyAction>:
   11058:	e92d4800 	push	{fp, lr}
   1105c:	e1a0b00d 	mov	fp, sp
   11060:	e24dd008 	sub	sp, sp, #8
   11064:	e58d0004 	str	r0, [sp, #4]
   11068:	e3500005 	cmp	r0, #5
   1106c:	0a000051 	beq	111b8 <doKeyAction+0x160>
   11070:	e59d0004 	ldr	r0, [sp, #4]
   11074:	e3500004 	cmp	r0, #4
   11078:	1a000005 	bne	11094 <doKeyAction+0x3c>
   1107c:	e59f013c 	ldr	r0, [pc, #316]	; 111c0 <doKeyAction+0x168>
   11080:	e5901000 	ldr	r1, [r0]
   11084:	e3510000 	cmp	r1, #0
   11088:	13a01000 	movne	r1, #0
   1108c:	03a01001 	moveq	r1, #1
   11090:	e5801000 	str	r1, [r0]
   11094:	e59f0124 	ldr	r0, [pc, #292]	; 111c0 <doKeyAction+0x168>
   11098:	e5901000 	ldr	r1, [r0]
   1109c:	e3510000 	cmp	r1, #0
   110a0:	0a00001f 	beq	11124 <doKeyAction+0xcc>
   110a4:	e5900000 	ldr	r0, [r0]
   110a8:	e3500001 	cmp	r0, #1
   110ac:	1a000040 	bne	111b4 <doKeyAction+0x15c>
   110b0:	e59d0004 	ldr	r0, [sp, #4]
   110b4:	e3500001 	cmp	r0, #1
   110b8:	1a00000a 	bne	110e8 <doKeyAction+0x90>
   110bc:	e59f0100 	ldr	r0, [pc, #256]	; 111c4 <doKeyAction+0x16c>
   110c0:	e5901000 	ldr	r1, [r0]
   110c4:	e3510007 	cmp	r1, #7
   110c8:	ca000006 	bgt	110e8 <doKeyAction+0x90>
   110cc:	e5901000 	ldr	r1, [r0]
   110d0:	e59f30f4 	ldr	r3, [pc, #244]	; 111cc <doKeyAction+0x174>
   110d4:	e59f20ec 	ldr	r2, [pc, #236]	; 111c8 <doKeyAction+0x170>
   110d8:	e2811001 	add	r1, r1, #1
   110dc:	e5801000 	str	r1, [r0]
   110e0:	e7930101 	ldr	r0, [r3, r1, lsl #2]
   110e4:	e5820000 	str	r0, [r2]
   110e8:	e59d0004 	ldr	r0, [sp, #4]
   110ec:	e3500002 	cmp	r0, #2
   110f0:	1a00002f 	bne	111b4 <doKeyAction+0x15c>
   110f4:	e59f00c8 	ldr	r0, [pc, #200]	; 111c4 <doKeyAction+0x16c>
   110f8:	e5901000 	ldr	r1, [r0]
   110fc:	e3510001 	cmp	r1, #1
   11100:	ba00002b 	blt	111b4 <doKeyAction+0x15c>
   11104:	e5901000 	ldr	r1, [r0]
   11108:	e59f30bc 	ldr	r3, [pc, #188]	; 111cc <doKeyAction+0x174>
   1110c:	e59f20b4 	ldr	r2, [pc, #180]	; 111c8 <doKeyAction+0x170>
   11110:	e2411001 	sub	r1, r1, #1
   11114:	e5801000 	str	r1, [r0]
   11118:	e7930101 	ldr	r0, [r3, r1, lsl #2]
   1111c:	e5820000 	str	r0, [r2]
   11120:	ea000023 	b	111b4 <doKeyAction+0x15c>
   11124:	e59d0004 	ldr	r0, [sp, #4]
   11128:	e3500003 	cmp	r0, #3
   1112c:	03a00001 	moveq	r0, #1
   11130:	0bfffe62 	bleq	10ac0 <bolus>
   11134:	e59d0004 	ldr	r0, [sp, #4]
   11138:	e3500000 	cmp	r0, #0
   1113c:	1a000001 	bne	11148 <doKeyAction+0xf0>
   11140:	e3a00000 	mov	r0, #0
   11144:	ebfffe5d 	bl	10ac0 <bolus>
   11148:	e59d0004 	ldr	r0, [sp, #4]
   1114c:	e3500001 	cmp	r0, #1
   11150:	1a000005 	bne	1116c <doKeyAction+0x114>
   11154:	e59f006c 	ldr	r0, [pc, #108]	; 111c8 <doKeyAction+0x170>
   11158:	e59f1070 	ldr	r1, [pc, #112]	; 111d0 <doKeyAction+0x178>
   1115c:	ed900a00 	vldr	s0, [r0]
   11160:	ed911a00 	vldr	s2, [r1]
   11164:	ee310a00 	vadd.f32	s0, s2, s0
   11168:	ed810a00 	vstr	s0, [r1]
   1116c:	e59d0004 	ldr	r0, [sp, #4]
   11170:	e3500002 	cmp	r0, #2
   11174:	1a00000e 	bne	111b4 <doKeyAction+0x15c>
   11178:	e59f1048 	ldr	r1, [pc, #72]	; 111c8 <doKeyAction+0x170>
   1117c:	e59f004c 	ldr	r0, [pc, #76]	; 111d0 <doKeyAction+0x178>
   11180:	ed910a00 	vldr	s0, [r1]
   11184:	ed901a00 	vldr	s2, [r0]
   11188:	ee310a40 	vsub.f32	s0, s2, s0
   1118c:	eeb50ac0 	vcmpe.f32	s0, #0.0
   11190:	eef1fa10 	vmrs	APSR_nzcv, fpscr
   11194:	da000004 	ble	111ac <doKeyAction+0x154>
   11198:	ed910a00 	vldr	s0, [r1]
   1119c:	ed901a00 	vldr	s2, [r0]
   111a0:	ee310a40 	vsub.f32	s0, s2, s0
   111a4:	ed800a00 	vstr	s0, [r0]
   111a8:	ea000001 	b	111b4 <doKeyAction+0x15c>
   111ac:	e3a01000 	mov	r1, #0
   111b0:	e5801000 	str	r1, [r0]
   111b4:	ebfffe97 	bl	10c18 <updateScreen>
   111b8:	e1a0d00b 	mov	sp, fp
   111bc:	e8bd8800 	pop	{fp, pc}
   111c0:	00010814 	andeq	r0, r1, r4, lsl r8
   111c4:	000107f0 	strdeq	r0, [r1], -r0	; <UNPREDICTABLE>
   111c8:	000107f4 	strdeq	r0, [r1], -r4
   111cc:	000107c4 	andeq	r0, r1, r4, asr #15
   111d0:	000107e8 	andeq	r0, r1, r8, ror #15

000111d4 <forward_target>:
   111d4:	e92d4800 	push	{fp, lr}
   111d8:	e1a0b00d 	mov	fp, sp
   111dc:	e24dd008 	sub	sp, sp, #8
   111e0:	e59f1010 	ldr	r1, [pc, #16]	; 111f8 <forward_target+0x24>
   111e4:	e58d0004 	str	r0, [sp, #4]
   111e8:	e1a00001 	mov	r0, r1
   111ec:	ebfffcf0 	bl	105b4 <printf@plt>
   111f0:	e1a0d00b 	mov	sp, fp
   111f4:	e8bd8800 	pop	{fp, pc}
   111f8:	00011969 	andeq	r1, r1, r9, ror #18

000111fc <main>:
   111fc:	e92d4800 	push	{fp, lr}
   11200:	e1a0b00d 	mov	fp, sp
   11204:	e24dd018 	sub	sp, sp, #24
   11208:	e59f2080 	ldr	r2, [pc, #128]	; 11290 <main+0x94>
   1120c:	e3a03000 	mov	r3, #0
   11210:	e90b0009 	stmdb	fp, {r0, r3}
   11214:	e1a00002 	mov	r0, r2
   11218:	e58d100c 	str	r1, [sp, #12]
   1121c:	ebfffce4 	bl	105b4 <printf@plt>
   11220:	e59f006c 	ldr	r0, [pc, #108]	; 11294 <main+0x98>
   11224:	ebfffce2 	bl	105b4 <printf@plt>
   11228:	ebfffd92 	bl	10878 <setup>
   1122c:	e59f1064 	ldr	r1, [pc, #100]	; 11298 <main+0x9c>
   11230:	e3a00002 	mov	r0, #2
   11234:	e58d1008 	str	r1, [sp, #8]
   11238:	e12fff31 	blx	r1
   1123c:	e59f3058 	ldr	r3, [pc, #88]	; 1129c <main+0xa0>
   11240:	e59f0058 	ldr	r0, [pc, #88]	; 112a0 <main+0xa4>
   11244:	e3a01010 	mov	r1, #16
   11248:	e3a02002 	mov	r2, #2
   1124c:	e58d3004 	str	r3, [sp, #4]
   11250:	e12fff33 	blx	r3
   11254:	e3a00001 	mov	r0, #1
   11258:	e58d0000 	str	r0, [sp]
   1125c:	ea000003 	b	11270 <main+0x74>
   11260:	e59d0000 	ldr	r0, [sp]
   11264:	e280000a 	add	r0, r0, #10
   11268:	e58d0000 	str	r0, [sp]
   1126c:	ebfffdad 	bl	10928 <loop>
   11270:	e59d0000 	ldr	r0, [sp]
   11274:	e350003d 	cmp	r0, #61	; 0x3d
   11278:	dafffff8 	ble	11260 <main+0x64>
   1127c:	e59f0020 	ldr	r0, [pc, #32]	; 112a4 <main+0xa8>
   11280:	ebfffccb 	bl	105b4 <printf@plt>
   11284:	e3a00000 	mov	r0, #0
   11288:	e1a0d00b 	mov	sp, fp
   1128c:	e8bd8800 	pop	{fp, pc}
   11290:	00011984 	andeq	r1, r1, r4, lsl #19
   11294:	0001199b 	muleq	r1, fp, r9
   11298:	000111d4 	ldrdeq	r1, [r1], -r4
   1129c:	00010684 	andeq	r0, r1, r4, lsl #13
   112a0:	00021d74 	andeq	r1, r2, r4, ror sp
   112a4:	000119ab 	andeq	r1, r1, fp, lsr #19

Disassembly of section .DATA_REGION_3__share:

000112a8 <.DATA_REGION_3__sdata_start>:
   112a8:	00000000 	andeq	r0, r0, r0

Disassembly of section .CODE_REGION_3_:

000112ac <ict_checking>:
   112ac:	e24dd004 	sub	sp, sp, #4
   112b0:	e58d0000 	str	r0, [sp]
   112b4:	e3a00000 	mov	r0, #0
   112b8:	e28dd004 	add	sp, sp, #4
   112bc:	e12fff1e 	bx	lr

000112c0 <error_found>:
   112c0:	e92d4800 	push	{fp, lr}
   112c4:	e1a0b00d 	mov	fp, sp
   112c8:	e59f0004 	ldr	r0, [pc, #4]	; 112d4 <error_found+0x14>
   112cc:	ebfffcb8 	bl	105b4 <printf@plt>
   112d0:	e8bd8800 	pop	{fp, pc}
   112d4:	00011b3b 	andeq	r1, r1, fp, lsr fp

Disassembly of section .DATA_REGION_4__share:

000112d8 <.DATA_REGION_4__sdata_start>:
   112d8:	00000000 	andeq	r0, r0, r0

Disassembly of section .DATA_REGION_4__data:

000112dc <.DATA_REGION_4__data_start>:
   112dc:	4d6e6970 			; <UNDEFINED> instruction: 0x4d6e6970
   112e0:	0065646f 	rsbeq	r6, r5, pc, ror #8
   112e4:	69676964 	stmdbvs	r7!, {r2, r5, r6, r8, fp, sp, lr}^
   112e8:	526c6174 	rsbpl	r6, ip, #116, 2
   112ec:	00646165 	rsbeq	r6, r4, r5, ror #2
   112f0:	69726553 	ldmdbvs	r2!, {r0, r1, r4, r6, r8, sl, sp, lr}^
   112f4:	625f6c61 	subsvs	r6, pc, #24832	; 0x6100
   112f8:	6e696765 	cdpvs	7, 6, cr6, cr9, cr5, {3}
   112fc:	72655300 	rsbvc	r5, r5, #0, 6
   11300:	5f6c6169 	svcpl	0x006c6169
   11304:	69617661 	stmdbvs	r1!, {r0, r5, r6, r9, sl, ip, sp, lr}^
   11308:	6c62616c 	stfvse	f6, [r2], #-432	; 0xfffffe50
   1130c:	65530065 	ldrbvs	r0, [r3, #-101]	; 0xffffff9b
   11310:	6c616972 			; <UNDEFINED> instruction: 0x6c616972
   11314:	6972775f 	ldmdbvs	r2!, {r0, r1, r2, r3, r4, r6, r8, r9, sl, ip, sp, lr}^
   11318:	00006574 	andeq	r6, r0, r4, ror r5

Disassembly of section .CODE_REGION_4_:

0001131c <pinMode>:
   1131c:	e92d4800 	push	{fp, lr}
   11320:	e1a0b00d 	mov	fp, sp
   11324:	e24dd008 	sub	sp, sp, #8
   11328:	e58d0004 	str	r0, [sp, #4]
   1132c:	e59fc01c 	ldr	ip, [pc, #28]	; 11350 <.DATA_REGION_4__data_end+0x34>
   11330:	e1a03001 	mov	r3, r1
   11334:	e59f1018 	ldr	r1, [pc, #24]	; 11354 <.DATA_REGION_4__data_end+0x38>
   11338:	e59d2004 	ldr	r2, [sp, #4]
   1133c:	e1a0000c 	mov	r0, ip
   11340:	e58d3000 	str	r3, [sp]
   11344:	ebfffc9a 	bl	105b4 <printf@plt>
   11348:	e1a0d00b 	mov	sp, fp
   1134c:	e8bd8800 	pop	{fp, pc}
   11350:	000119c0 	andeq	r1, r1, r0, asr #19
   11354:	000112dc 	ldrdeq	r1, [r1], -ip

00011358 <digitalRead>:
   11358:	e92d4800 	push	{fp, lr}
   1135c:	e1a0b00d 	mov	fp, sp
   11360:	e24dd008 	sub	sp, sp, #8
   11364:	e1a02000 	mov	r2, r0
   11368:	e59f0020 	ldr	r0, [pc, #32]	; 11390 <digitalRead+0x38>
   1136c:	e59f1020 	ldr	r1, [pc, #32]	; 11394 <digitalRead+0x3c>
   11370:	e58d2004 	str	r2, [sp, #4]
   11374:	ebfffc8e 	bl	105b4 <printf@plt>
   11378:	e59f0018 	ldr	r0, [pc, #24]	; 11398 <digitalRead+0x40>
   1137c:	e1a0100d 	mov	r1, sp
   11380:	ebfffca6 	bl	10620 <__isoc99_scanf@plt>
   11384:	e59d0000 	ldr	r0, [sp]
   11388:	e1a0d00b 	mov	sp, fp
   1138c:	e8bd8800 	pop	{fp, pc}
   11390:	000119e2 	andeq	r1, r1, r2, ror #19
   11394:	000112e4 	andeq	r1, r1, r4, ror #5
   11398:	00011966 	andeq	r1, r1, r6, ror #18

0001139c <digitalWrite>:
   1139c:	e24dd008 	sub	sp, sp, #8
   113a0:	e58d0004 	str	r0, [sp, #4]
   113a4:	e58d1000 	str	r1, [sp]
   113a8:	e28dd008 	add	sp, sp, #8
   113ac:	e12fff1e 	bx	lr

000113b0 <Serial_begin>:
   113b0:	e92d4800 	push	{fp, lr}
   113b4:	e1a0b00d 	mov	fp, sp
   113b8:	e24dd008 	sub	sp, sp, #8
   113bc:	e1a02000 	mov	r2, r0
   113c0:	e59f0010 	ldr	r0, [pc, #16]	; 113d8 <Serial_begin+0x28>
   113c4:	e59f1010 	ldr	r1, [pc, #16]	; 113dc <Serial_begin+0x2c>
   113c8:	e58d2004 	str	r2, [sp, #4]
   113cc:	ebfffc78 	bl	105b4 <printf@plt>
   113d0:	e1a0d00b 	mov	sp, fp
   113d4:	e8bd8800 	pop	{fp, pc}
   113d8:	000119f5 	strdeq	r1, [r1], -r5
   113dc:	000112f0 	strdeq	r1, [r1], -r0

000113e0 <Serial_available>:
   113e0:	e92d4800 	push	{fp, lr}
   113e4:	e1a0b00d 	mov	fp, sp
   113e8:	e24dd008 	sub	sp, sp, #8
   113ec:	ebfffc73 	bl	105c0 <getchar@plt>
   113f0:	e5cd0003 	strb	r0, [sp, #3]
   113f4:	e59f302c 	ldr	r3, [pc, #44]	; 11428 <Serial_available+0x48>
   113f8:	e59f102c 	ldr	r1, [pc, #44]	; 1142c <Serial_available+0x4c>
   113fc:	e5dd2003 	ldrb	r2, [sp, #3]
   11400:	e1a00003 	mov	r0, r3
   11404:	ebfffc6a 	bl	105b4 <printf@plt>
   11408:	e5dd0003 	ldrb	r0, [sp, #3]
   1140c:	e3500079 	cmp	r0, #121	; 0x79
   11410:	13a00000 	movne	r0, #0
   11414:	03a00001 	moveq	r0, #1
   11418:	e58d0004 	str	r0, [sp, #4]
   1141c:	e59d0004 	ldr	r0, [sp, #4]
   11420:	e1a0d00b 	mov	sp, fp
   11424:	e8bd8800 	pop	{fp, pc}
   11428:	00011a09 	andeq	r1, r1, r9, lsl #20
   1142c:	000112fd 	strdeq	r1, [r1], -sp

00011430 <Serial_read>:
   11430:	e92d4800 	push	{fp, lr}
   11434:	e1a0b00d 	mov	fp, sp
   11438:	e24dd008 	sub	sp, sp, #8
   1143c:	ebfffc5f 	bl	105c0 <getchar@plt>
   11440:	e54b0001 	strb	r0, [fp, #-1]
   11444:	e55b0001 	ldrb	r0, [fp, #-1]
   11448:	e1a0d00b 	mov	sp, fp
   1144c:	e8bd8800 	pop	{fp, pc}

00011450 <Serial_write>:
   11450:	e92d4800 	push	{fp, lr}
   11454:	e1a0b00d 	mov	fp, sp
   11458:	e24dd008 	sub	sp, sp, #8
   1145c:	e58d0004 	str	r0, [sp, #4]
   11460:	e59fc020 	ldr	ip, [pc, #32]	; 11488 <Serial_write+0x38>
   11464:	e1a03001 	mov	r3, r1
   11468:	e59f101c 	ldr	r1, [pc, #28]	; 1148c <Serial_write+0x3c>
   1146c:	e59d2004 	ldr	r2, [sp, #4]
   11470:	e1a0000c 	mov	r0, ip
   11474:	e58d3000 	str	r3, [sp]
   11478:	ebfffc4d 	bl	105b4 <printf@plt>
   1147c:	e3a00000 	mov	r0, #0
   11480:	e1a0d00b 	mov	sp, fp
   11484:	e8bd8800 	pop	{fp, pc}
   11488:	00011a14 	andeq	r1, r1, r4, lsl sl
   1148c:	0001130e 	andeq	r1, r1, lr, lsl #6

00011490 <analogRead>:
   11490:	e92d4800 	push	{fp, lr}
   11494:	e1a0b00d 	mov	fp, sp
   11498:	e24dd008 	sub	sp, sp, #8
   1149c:	e1a01000 	mov	r1, r0
   114a0:	e59f001c 	ldr	r0, [pc, #28]	; 114c4 <analogRead+0x34>
   114a4:	e58d1004 	str	r1, [sp, #4]
   114a8:	ebfffc41 	bl	105b4 <printf@plt>
   114ac:	e59f0014 	ldr	r0, [pc, #20]	; 114c8 <analogRead+0x38>
   114b0:	e1a0100d 	mov	r1, sp
   114b4:	ebfffc59 	bl	10620 <__isoc99_scanf@plt>
   114b8:	e59d0000 	ldr	r0, [sp]
   114bc:	e1a0d00b 	mov	sp, fp
   114c0:	e8bd8800 	pop	{fp, pc}
   114c4:	00011a3a 	andeq	r1, r1, sl, lsr sl
   114c8:	00011966 	andeq	r1, r1, r6, ror #18

000114cc <millis>:
   114cc:	e92d4800 	push	{fp, lr}
   114d0:	e1a0b00d 	mov	fp, sp
   114d4:	e24dd008 	sub	sp, sp, #8
   114d8:	e1a0000d 	mov	r0, sp
   114dc:	e3a01000 	mov	r1, #0
   114e0:	ebfffc3c 	bl	105d8 <gettimeofday@plt>
   114e4:	e59f001c 	ldr	r0, [pc, #28]	; 11508 <millis+0x3c>
   114e8:	e89d0006 	ldm	sp, {r1, r2}
   114ec:	e750f012 	smmul	r0, r2, r0
   114f0:	e1a02340 	asr	r2, r0, #6
   114f4:	e0820fa0 	add	r0, r2, r0, lsr #31
   114f8:	e3a02ffa 	mov	r2, #1000	; 0x3e8
   114fc:	e0200291 	mla	r0, r1, r2, r0
   11500:	e1a0d00b 	mov	sp, fp
   11504:	e8bd8800 	pop	{fp, pc}
   11508:	10624dd3 	ldrdne	r4, [r2], #-211	; 0xffffff2d	; <UNPREDICTABLE>

0001150c <usecs>:
   1150c:	e92d4800 	push	{fp, lr}
   11510:	e1a0b00d 	mov	fp, sp
   11514:	e24dd008 	sub	sp, sp, #8
   11518:	e1a0000d 	mov	r0, sp
   1151c:	e3a01000 	mov	r1, #0
   11520:	ebfffc2c 	bl	105d8 <gettimeofday@plt>
   11524:	e3a02d09 	mov	r2, #576	; 0x240
   11528:	e89d0003 	ldm	sp, {r0, r1}
   1152c:	e382293d 	orr	r2, r2, #999424	; 0xf4000
   11530:	e0201290 	mla	r0, r0, r2, r1
   11534:	e1a0d00b 	mov	sp, fp
   11538:	e8bd8800 	pop	{fp, pc}

0001153c <delayMicroseconds>:
   1153c:	e92d4800 	push	{fp, lr}
   11540:	e1a0b00d 	mov	fp, sp
   11544:	e24dd008 	sub	sp, sp, #8
   11548:	ed8d0a01 	vstr	s0, [sp, #4]
   1154c:	eebd0ac0 	vcvt.s32.f32	s0, s0
   11550:	ee100a10 	vmov	r0, s0
   11554:	ebfffc1c 	bl	105cc <usleep@plt>
   11558:	e1a0d00b 	mov	sp, fp
   1155c:	e8bd8800 	pop	{fp, pc}

00011560 <toUInt>:
   11560:	e92d4800 	push	{fp, lr}
   11564:	e1a0b00d 	mov	fp, sp
   11568:	e24dd010 	sub	sp, sp, #16
   1156c:	e50b0004 	str	r0, [fp, #-4]
   11570:	e51b0004 	ldr	r0, [fp, #-4]
   11574:	e58d1008 	str	r1, [sp, #8]
   11578:	ebfffc2b 	bl	1062c <atoi@plt>
   1157c:	e58d0004 	str	r0, [sp, #4]
   11580:	e1a0d00b 	mov	sp, fp
   11584:	e8bd8800 	pop	{fp, pc}

Disassembly of section .DATA_REGION_5__share:

00011588 <.DATA_REGION_5__sdata_start>:
   11588:	00000000 	andeq	r0, r0, r0

Disassembly of section .DATA_REGION_5__data:

0001158c <.DATA_REGION_5__data_start>:
   1158c:	5f64656c 	svcpl	0x0064656c
   11590:	6c006e6f 	stcvs	14, cr6, [r0], {111}	; 0x6f
   11594:	6f5f6465 	svcvs	0x005f6465
   11598:	00006666 	andeq	r6, r0, r6, ror #12

Disassembly of section .CODE_REGION_5_:

0001159c <led_on>:
   1159c:	e92d4800 	push	{fp, lr}
   115a0:	e1a0b00d 	mov	fp, sp
   115a4:	e59f2018 	ldr	r2, [pc, #24]	; 115c4 <.DATA_REGION_5__data_end+0x28>
   115a8:	e59f0018 	ldr	r0, [pc, #24]	; 115c8 <.DATA_REGION_5__data_end+0x2c>
   115ac:	e59f1018 	ldr	r1, [pc, #24]	; 115cc <.DATA_REGION_5__data_end+0x30>
   115b0:	e5923000 	ldr	r3, [r2]
   115b4:	e2833001 	add	r3, r3, #1
   115b8:	e5823000 	str	r3, [r2]
   115bc:	ebfffbfc 	bl	105b4 <printf@plt>
   115c0:	e8bd8800 	pop	{fp, pc}
   115c4:	00010650 	andeq	r0, r1, r0, asr r6
   115c8:	00011a4c 	andeq	r1, r1, ip, asr #20
   115cc:	0001158c 	andeq	r1, r1, ip, lsl #11

000115d0 <led_off>:
   115d0:	e92d4800 	push	{fp, lr}
   115d4:	e1a0b00d 	mov	fp, sp
   115d8:	e59f0008 	ldr	r0, [pc, #8]	; 115e8 <led_off+0x18>
   115dc:	e59f1008 	ldr	r1, [pc, #8]	; 115ec <led_off+0x1c>
   115e0:	ebfffbf3 	bl	105b4 <printf@plt>
   115e4:	e8bd8800 	pop	{fp, pc}
   115e8:	00011a4c 	andeq	r1, r1, ip, asr #20
   115ec:	00011593 	muleq	r1, r3, r5

Disassembly of section .DATA_REGION_6__share:

000115f0 <.DATA_REGION_6__sdata_start>:
   115f0:	00000000 	andeq	r0, r0, r0

Disassembly of section .text:

000115f4 <view_switch_to_rd_and_log>:
   115f4:	b590      	push	{r4, r7, lr}
   115f6:	b089      	sub	sp, #36	; 0x24
   115f8:	af04      	add	r7, sp, #16
   115fa:	60f8      	str	r0, [r7, #12]
   115fc:	60b9      	str	r1, [r7, #8]
   115fe:	607a      	str	r2, [r7, #4]
   11600:	4c54      	ldr	r4, [pc, #336]	; (11754 <.DATA_REGION_6__sdata_end+0x160>)
   11602:	447c      	add	r4, pc
   11604:	4b54      	ldr	r3, [pc, #336]	; (11758 <.DATA_REGION_6__sdata_end+0x164>)
   11606:	58e3      	ldr	r3, [r4, r3]
   11608:	681b      	ldr	r3, [r3, #0]
   1160a:	3301      	adds	r3, #1
   1160c:	4a52      	ldr	r2, [pc, #328]	; (11758 <.DATA_REGION_6__sdata_end+0x164>)
   1160e:	58a2      	ldr	r2, [r4, r2]
   11610:	6013      	str	r3, [r2, #0]
   11612:	4b51      	ldr	r3, [pc, #324]	; (11758 <.DATA_REGION_6__sdata_end+0x164>)
   11614:	58e3      	ldr	r3, [r4, r3]
   11616:	6819      	ldr	r1, [r3, #0]
   11618:	f246 6367 	movw	r3, #26215	; 0x6667
   1161c:	f2c6 6366 	movt	r3, #26214	; 0x6666
   11620:	fb81 2303 	smull	r2, r3, r1, r3
   11624:	109a      	asrs	r2, r3, #2
   11626:	17cb      	asrs	r3, r1, #31
   11628:	1ad2      	subs	r2, r2, r3
   1162a:	4613      	mov	r3, r2
   1162c:	009b      	lsls	r3, r3, #2
   1162e:	4413      	add	r3, r2
   11630:	005b      	lsls	r3, r3, #1
   11632:	1aca      	subs	r2, r1, r3
   11634:	2a00      	cmp	r2, #0
   11636:	f040 8089 	bne.w	1174c <view_switch_to_rd_and_log+0x158>
   1163a:	4b48      	ldr	r3, [pc, #288]	; (1175c <.DATA_REGION_6__sdata_end+0x168>)
   1163c:	58e3      	ldr	r3, [r4, r3]
   1163e:	781b      	ldrb	r3, [r3, #0]
   11640:	f083 0301 	eor.w	r3, r3, #1
   11644:	b2db      	uxtb	r3, r3
   11646:	2b00      	cmp	r3, #0
   11648:	d045      	beq.n	116d6 <view_switch_to_rd_and_log+0xe2>
   1164a:	4b44      	ldr	r3, [pc, #272]	; (1175c <.DATA_REGION_6__sdata_end+0x168>)
   1164c:	58e3      	ldr	r3, [r4, r3]
   1164e:	2201      	movs	r2, #1
   11650:	701a      	strb	r2, [r3, #0]
   11652:	4b43      	ldr	r3, [pc, #268]	; (11760 <.DATA_REGION_6__sdata_end+0x16c>)
   11654:	447b      	add	r3, pc
   11656:	4618      	mov	r0, r3
   11658:	f7fe efc4 	blx	105e4 <puts@plt>
   1165c:	4b41      	ldr	r3, [pc, #260]	; (11764 <.DATA_REGION_6__sdata_end+0x170>)
   1165e:	58e3      	ldr	r3, [r4, r3]
   11660:	4619      	mov	r1, r3
   11662:	2000      	movs	r0, #0
   11664:	f7fe efe8 	blx	10638 <TEEC_InitializeContext@plt>
   11668:	4602      	mov	r2, r0
   1166a:	4b3f      	ldr	r3, [pc, #252]	; (11768 <.DATA_REGION_6__sdata_end+0x174>)
   1166c:	58e3      	ldr	r3, [r4, r3]
   1166e:	601a      	str	r2, [r3, #0]
   11670:	4b3d      	ldr	r3, [pc, #244]	; (11768 <.DATA_REGION_6__sdata_end+0x174>)
   11672:	58e3      	ldr	r3, [r4, r3]
   11674:	681b      	ldr	r3, [r3, #0]
   11676:	2b00      	cmp	r3, #0
   11678:	d009      	beq.n	1168e <view_switch_to_rd_and_log+0x9a>
   1167a:	4b3b      	ldr	r3, [pc, #236]	; (11768 <.DATA_REGION_6__sdata_end+0x174>)
   1167c:	58e3      	ldr	r3, [r4, r3]
   1167e:	681b      	ldr	r3, [r3, #0]
   11680:	461a      	mov	r2, r3
   11682:	4b3a      	ldr	r3, [pc, #232]	; (1176c <.DATA_REGION_6__sdata_end+0x178>)
   11684:	447b      	add	r3, pc
   11686:	4619      	mov	r1, r3
   11688:	2001      	movs	r0, #1
   1168a:	f7fe efbe 	blx	10608 <errx@plt>
   1168e:	4b38      	ldr	r3, [pc, #224]	; (11770 <.DATA_REGION_6__sdata_end+0x17c>)
   11690:	58e3      	ldr	r3, [r4, r3]
   11692:	9302      	str	r3, [sp, #8]
   11694:	2300      	movs	r3, #0
   11696:	9301      	str	r3, [sp, #4]
   11698:	2300      	movs	r3, #0
   1169a:	9300      	str	r3, [sp, #0]
   1169c:	2300      	movs	r3, #0
   1169e:	4a35      	ldr	r2, [pc, #212]	; (11774 <.DATA_REGION_6__sdata_end+0x180>)
   116a0:	58a2      	ldr	r2, [r4, r2]
   116a2:	4935      	ldr	r1, [pc, #212]	; (11778 <.DATA_REGION_6__sdata_end+0x184>)
   116a4:	5861      	ldr	r1, [r4, r1]
   116a6:	482f      	ldr	r0, [pc, #188]	; (11764 <.DATA_REGION_6__sdata_end+0x170>)
   116a8:	5820      	ldr	r0, [r4, r0]
   116aa:	f7fe efcc 	blx	10644 <TEEC_OpenSession@plt>
   116ae:	4602      	mov	r2, r0
   116b0:	4b2d      	ldr	r3, [pc, #180]	; (11768 <.DATA_REGION_6__sdata_end+0x174>)
   116b2:	58e3      	ldr	r3, [r4, r3]
   116b4:	601a      	str	r2, [r3, #0]
   116b6:	4b2c      	ldr	r3, [pc, #176]	; (11768 <.DATA_REGION_6__sdata_end+0x174>)
   116b8:	58e3      	ldr	r3, [r4, r3]
   116ba:	681b      	ldr	r3, [r3, #0]
   116bc:	2b00      	cmp	r3, #0
   116be:	d00a      	beq.n	116d6 <view_switch_to_rd_and_log+0xe2>
   116c0:	4b29      	ldr	r3, [pc, #164]	; (11768 <.DATA_REGION_6__sdata_end+0x174>)
   116c2:	58e3      	ldr	r3, [r4, r3]
   116c4:	681a      	ldr	r2, [r3, #0]
   116c6:	4b2a      	ldr	r3, [pc, #168]	; (11770 <.DATA_REGION_6__sdata_end+0x17c>)
   116c8:	58e3      	ldr	r3, [r4, r3]
   116ca:	681b      	ldr	r3, [r3, #0]
   116cc:	492b      	ldr	r1, [pc, #172]	; (1177c <.DATA_REGION_6__sdata_end+0x188>)
   116ce:	4479      	add	r1, pc
   116d0:	2001      	movs	r0, #1
   116d2:	f7fe ef9a 	blx	10608 <errx@plt>
   116d6:	223c      	movs	r2, #60	; 0x3c
   116d8:	2100      	movs	r1, #0
   116da:	4b29      	ldr	r3, [pc, #164]	; (11780 <.DATA_REGION_6__sdata_end+0x18c>)
   116dc:	58e3      	ldr	r3, [r4, r3]
   116de:	4618      	mov	r0, r3
   116e0:	f7fe ef8c 	blx	105fc <memset@plt>
   116e4:	4b26      	ldr	r3, [pc, #152]	; (11780 <.DATA_REGION_6__sdata_end+0x18c>)
   116e6:	58e3      	ldr	r3, [r4, r3]
   116e8:	461a      	mov	r2, r3
   116ea:	2333      	movs	r3, #51	; 0x33
   116ec:	6053      	str	r3, [r2, #4]
   116ee:	68fb      	ldr	r3, [r7, #12]
   116f0:	4a23      	ldr	r2, [pc, #140]	; (11780 <.DATA_REGION_6__sdata_end+0x18c>)
   116f2:	58a2      	ldr	r2, [r4, r2]
   116f4:	6093      	str	r3, [r2, #8]
   116f6:	68bb      	ldr	r3, [r7, #8]
   116f8:	4a21      	ldr	r2, [pc, #132]	; (11780 <.DATA_REGION_6__sdata_end+0x18c>)
   116fa:	58a2      	ldr	r2, [r4, r2]
   116fc:	60d3      	str	r3, [r2, #12]
   116fe:	687b      	ldr	r3, [r7, #4]
   11700:	4a1f      	ldr	r2, [pc, #124]	; (11780 <.DATA_REGION_6__sdata_end+0x18c>)
   11702:	58a2      	ldr	r2, [r4, r2]
   11704:	6153      	str	r3, [r2, #20]
   11706:	4b1e      	ldr	r3, [pc, #120]	; (11780 <.DATA_REGION_6__sdata_end+0x18c>)
   11708:	58e3      	ldr	r3, [r4, r3]
   1170a:	461a      	mov	r2, r3
   1170c:	f44f 73de 	mov.w	r3, #444	; 0x1bc
   11710:	6193      	str	r3, [r2, #24]
   11712:	4b17      	ldr	r3, [pc, #92]	; (11770 <.DATA_REGION_6__sdata_end+0x17c>)
   11714:	58e3      	ldr	r3, [r4, r3]
   11716:	4a1a      	ldr	r2, [pc, #104]	; (11780 <.DATA_REGION_6__sdata_end+0x18c>)
   11718:	58a2      	ldr	r2, [r4, r2]
   1171a:	2100      	movs	r1, #0
   1171c:	4816      	ldr	r0, [pc, #88]	; (11778 <.DATA_REGION_6__sdata_end+0x184>)
   1171e:	5820      	ldr	r0, [r4, r0]
   11720:	f7fe ef66 	blx	105f0 <TEEC_InvokeCommand@plt>
   11724:	4602      	mov	r2, r0
   11726:	4b10      	ldr	r3, [pc, #64]	; (11768 <.DATA_REGION_6__sdata_end+0x174>)
   11728:	58e3      	ldr	r3, [r4, r3]
   1172a:	601a      	str	r2, [r3, #0]
   1172c:	4b0e      	ldr	r3, [pc, #56]	; (11768 <.DATA_REGION_6__sdata_end+0x174>)
   1172e:	58e3      	ldr	r3, [r4, r3]
   11730:	681b      	ldr	r3, [r3, #0]
   11732:	2b00      	cmp	r3, #0
   11734:	d00b      	beq.n	1174e <view_switch_to_rd_and_log+0x15a>
   11736:	4b0c      	ldr	r3, [pc, #48]	; (11768 <.DATA_REGION_6__sdata_end+0x174>)
   11738:	58e3      	ldr	r3, [r4, r3]
   1173a:	681a      	ldr	r2, [r3, #0]
   1173c:	4b0c      	ldr	r3, [pc, #48]	; (11770 <.DATA_REGION_6__sdata_end+0x17c>)
   1173e:	58e3      	ldr	r3, [r4, r3]
   11740:	681b      	ldr	r3, [r3, #0]
   11742:	4910      	ldr	r1, [pc, #64]	; (11784 <.DATA_REGION_6__sdata_end+0x190>)
   11744:	4479      	add	r1, pc
   11746:	2001      	movs	r0, #1
   11748:	f7fe ef5e 	blx	10608 <errx@plt>
   1174c:	bf00      	nop
   1174e:	3714      	adds	r7, #20
   11750:	46bd      	mov	sp, r7
   11752:	bd90      	pop	{r4, r7, pc}
   11754:	000106da 	ldrdeq	r0, [r1], -sl
   11758:	00000048 	andeq	r0, r0, r8, asr #32
   1175c:	0000005c 	andeq	r0, r0, ip, asr r0
   11760:	0000050c 	andeq	r0, r0, ip, lsl #10
   11764:	00000040 	andeq	r0, r0, r0, asr #32
   11768:	00000050 	andeq	r0, r0, r0, asr r0
   1176c:	00000504 	andeq	r0, r0, r4, lsl #10
   11770:	00000044 	andeq	r0, r0, r4, asr #32
   11774:	00000058 	andeq	r0, r0, r8, asr r0
   11778:	0000004c 	andeq	r0, r0, ip, asr #32
   1177c:	000004ea 	andeq	r0, r0, sl, ror #9
   11780:	00000054 	andeq	r0, r0, r4, asr r0
   11784:	000004a8 	andeq	r0, r0, r8, lsr #9

00011788 <view_switch_to_text_and_log>:
   11788:	b598      	push	{r3, r4, r7, lr}
   1178a:	af00      	add	r7, sp, #0
   1178c:	4c19      	ldr	r4, [pc, #100]	; (117f4 <view_switch_to_text_and_log+0x6c>)
   1178e:	447c      	add	r4, pc
   11790:	223c      	movs	r2, #60	; 0x3c
   11792:	2100      	movs	r1, #0
   11794:	4b18      	ldr	r3, [pc, #96]	; (117f8 <view_switch_to_text_and_log+0x70>)
   11796:	58e3      	ldr	r3, [r4, r3]
   11798:	4618      	mov	r0, r3
   1179a:	f7fe ef30 	blx	105fc <memset@plt>
   1179e:	4b16      	ldr	r3, [pc, #88]	; (117f8 <view_switch_to_text_and_log+0x70>)
   117a0:	58e3      	ldr	r3, [r4, r3]
   117a2:	461a      	mov	r2, r3
   117a4:	2303      	movs	r3, #3
   117a6:	6053      	str	r3, [r2, #4]
   117a8:	4b13      	ldr	r3, [pc, #76]	; (117f8 <view_switch_to_text_and_log+0x70>)
   117aa:	58e3      	ldr	r3, [r4, r3]
   117ac:	461a      	mov	r2, r3
   117ae:	f64f 73fa 	movw	r3, #65530	; 0xfffa
   117b2:	6093      	str	r3, [r2, #8]
   117b4:	4b11      	ldr	r3, [pc, #68]	; (117fc <view_switch_to_text_and_log+0x74>)
   117b6:	58e3      	ldr	r3, [r4, r3]
   117b8:	4a0f      	ldr	r2, [pc, #60]	; (117f8 <view_switch_to_text_and_log+0x70>)
   117ba:	58a2      	ldr	r2, [r4, r2]
   117bc:	2100      	movs	r1, #0
   117be:	4810      	ldr	r0, [pc, #64]	; (11800 <view_switch_to_text_and_log+0x78>)
   117c0:	5820      	ldr	r0, [r4, r0]
   117c2:	f7fe ef16 	blx	105f0 <TEEC_InvokeCommand@plt>
   117c6:	4602      	mov	r2, r0
   117c8:	4b0e      	ldr	r3, [pc, #56]	; (11804 <view_switch_to_text_and_log+0x7c>)
   117ca:	58e3      	ldr	r3, [r4, r3]
   117cc:	601a      	str	r2, [r3, #0]
   117ce:	4b0d      	ldr	r3, [pc, #52]	; (11804 <view_switch_to_text_and_log+0x7c>)
   117d0:	58e3      	ldr	r3, [r4, r3]
   117d2:	681b      	ldr	r3, [r3, #0]
   117d4:	2b00      	cmp	r3, #0
   117d6:	d00a      	beq.n	117ee <view_switch_to_text_and_log+0x66>
   117d8:	4b0a      	ldr	r3, [pc, #40]	; (11804 <view_switch_to_text_and_log+0x7c>)
   117da:	58e3      	ldr	r3, [r4, r3]
   117dc:	681a      	ldr	r2, [r3, #0]
   117de:	4b07      	ldr	r3, [pc, #28]	; (117fc <view_switch_to_text_and_log+0x74>)
   117e0:	58e3      	ldr	r3, [r4, r3]
   117e2:	681b      	ldr	r3, [r3, #0]
   117e4:	4908      	ldr	r1, [pc, #32]	; (11808 <view_switch_to_text_and_log+0x80>)
   117e6:	4479      	add	r1, pc
   117e8:	2001      	movs	r0, #1
   117ea:	f7fe ef0e 	blx	10608 <errx@plt>
   117ee:	bf00      	nop
   117f0:	bd98      	pop	{r3, r4, r7, pc}
   117f2:	bf00      	nop
   117f4:	0001054e 	andeq	r0, r1, lr, asr #10
   117f8:	00000054 	andeq	r0, r0, r4, asr r0
   117fc:	00000044 	andeq	r0, r0, r4, asr #32
   11800:	0000004c 	andeq	r0, r0, ip, asr #32
   11804:	00000050 	andeq	r0, r0, r0, asr r0
   11808:	00000406 	andeq	r0, r0, r6, lsl #8

0001180c <__test>:
   1180c:	b480      	push	{r7}
   1180e:	b085      	sub	sp, #20
   11810:	af00      	add	r7, sp, #0
   11812:	e9c7 0102 	strd	r0, r1, [r7, #8]
   11816:	e9c7 2300 	strd	r2, r3, [r7]
   1181a:	bf00      	nop
   1181c:	3714      	adds	r7, #20
   1181e:	46bd      	mov	sp, r7
   11820:	f85d 7b04 	ldr.w	r7, [sp], #4
   11824:	4770      	bx	lr

00011826 <__conditional_branch_recording>:
   11826:	b480      	push	{r7}
   11828:	b083      	sub	sp, #12
   1182a:	af00      	add	r7, sp, #0
   1182c:	4603      	mov	r3, r0
   1182e:	71fb      	strb	r3, [r7, #7]
   11830:	bf00      	nop
   11832:	370c      	adds	r7, #12
   11834:	46bd      	mov	sp, r7
   11836:	f85d 7b04 	ldr.w	r7, [sp], #4
   1183a:	4770      	bx	lr

0001183c <__tsf_recording>:
   1183c:	b480      	push	{r7}
   1183e:	b083      	sub	sp, #12
   11840:	af00      	add	r7, sp, #0
   11842:	6078      	str	r0, [r7, #4]
   11844:	6039      	str	r1, [r7, #0]
   11846:	bf00      	nop
   11848:	370c      	adds	r7, #12
   1184a:	46bd      	mov	sp, r7
   1184c:	f85d 7b04 	ldr.w	r7, [sp], #4
   11850:	4770      	bx	lr
   11852:	bf00      	nop

Disassembly of section .trampoline:

00011854 <__cfv_icall>:
   11854:	e24dd080 	sub	sp, sp, #128	; 0x80
   11858:	e58d0000 	str	r0, [sp]
   1185c:	e58d1008 	str	r1, [sp, #8]
   11860:	e58d2010 	str	r2, [sp, #16]
   11864:	e58d3018 	str	r3, [sp, #24]
   11868:	e58d4020 	str	r4, [sp, #32]
   1186c:	e58d5028 	str	r5, [sp, #40]	; 0x28
   11870:	e58d6030 	str	r6, [sp, #48]	; 0x30
   11874:	e58d7038 	str	r7, [sp, #56]	; 0x38
   11878:	e58d8040 	str	r8, [sp, #64]	; 0x40
   1187c:	e58d9048 	str	r9, [sp, #72]	; 0x48
   11880:	e58da050 	str	sl, [sp, #80]	; 0x50
   11884:	e58db058 	str	fp, [sp, #88]	; 0x58
   11888:	e58dc060 	str	ip, [sp, #96]	; 0x60
   1188c:	e58dd068 	str	sp, [sp, #104]	; 0x68
   11890:	e58de070 	str	lr, [sp, #112]	; 0x70
   11894:	e10f4000 	mrs	r4, CPSR
   11898:	e58d4078 	str	r4, [sp, #120]	; 0x78
   1189c:	faffff54 	blx	115f4 <.DATA_REGION_6__sdata_end>
   118a0:	e59d4078 	ldr	r4, [sp, #120]	; 0x78
   118a4:	e129f004 	msr	CPSR_fc, r4
   118a8:	e59d0000 	ldr	r0, [sp]
   118ac:	e59d1008 	ldr	r1, [sp, #8]
   118b0:	e59d2010 	ldr	r2, [sp, #16]
   118b4:	e59d3018 	ldr	r3, [sp, #24]
   118b8:	e59d4020 	ldr	r4, [sp, #32]
   118bc:	e59d5028 	ldr	r5, [sp, #40]	; 0x28
   118c0:	e59d6030 	ldr	r6, [sp, #48]	; 0x30
   118c4:	e59d7038 	ldr	r7, [sp, #56]	; 0x38
   118c8:	e59d8040 	ldr	r8, [sp, #64]	; 0x40
   118cc:	e59d9048 	ldr	r9, [sp, #72]	; 0x48
   118d0:	e59da050 	ldr	sl, [sp, #80]	; 0x50
   118d4:	e59db058 	ldr	fp, [sp, #88]	; 0x58
   118d8:	e59dc060 	ldr	ip, [sp, #96]	; 0x60
   118dc:	e59dd068 	ldr	sp, [sp, #104]	; 0x68
   118e0:	e59de070 	ldr	lr, [sp, #112]	; 0x70
   118e4:	e28dd080 	add	sp, sp, #128	; 0x80
   118e8:	e1a0f00e 	mov	pc, lr
