; ModuleID = './GCS_Common.cpp.0.o'
source_filename = "../../libraries/GCS_MAVLink/GCS_Common.cpp"
target datalayout = "e-m:e-i64:64-f80:128-n8:16:32:64-S128"
target triple = "x86_64-unknown-linux-gnu"

%class.GCS = type <{ i32 (...)**, %class.DataFlash_Class*, %class.AP_Frsky_Telem*, %class.ObjectArray, i8, [7 x i8] }>
%class.DataFlash_Class = type { %class.Functor, %struct.anon, %struct.LogStructure*, i8, %struct.UnitStructure*, %struct.MultiplierStructure*, i8, i8, i8, [2 x %class.DataFlash_Backend*], %class.AP_ParamT.2*, %"struct.DataFlash_Class::log_write_fmt"*, i8, [256 x i8], i8, i8, i16, i16, i16, i16, i32, i32, i32, i16, %class.GCS_MAVLINK* }
%class.Functor = type { i8*, void (i8*)* }
%struct.anon = type { %class.AP_ParamT, %class.AP_ParamT, %class.AP_ParamT, %class.AP_ParamT, %class.AP_ParamT, %class.AP_ParamT }
%class.AP_ParamT = type { i8 }
%struct.LogStructure = type { i8, i8, i8*, i8*, i8*, i8*, i8* }
%struct.UnitStructure = type { i8, i8* }
%struct.MultiplierStructure = type { i8, double }
%class.DataFlash_Backend = type <{ i32 (...)**, %class.DataFlash_Class*, %class.DFMessageWriter_DFLogStart*, i8, i8, [2 x i8], i32, i8, [3 x i8], i32, i32, i8, [3 x i8] }>
%class.DFMessageWriter_DFLogStart = type { %class.DFMessageWriter, i8, i32, i16, i8, i8, i8, %"struct.AP_Param::ParamToken", %class.AP_Param*, i32, [4 x i8], %class.DFMessageWriter_WriteSysInfo, %class.DFMessageWriter_WriteEntireMission }
%class.DFMessageWriter = type { i32 (...)**, i8, %class.DataFlash_Backend* }
%"struct.AP_Param::ParamToken" = type { i32 }
%class.AP_Param = type { i8 }
%class.DFMessageWriter_WriteSysInfo = type <{ %class.DFMessageWriter, i32, [4 x i8] }>
%class.DFMessageWriter_WriteEntireMission = type { %class.DFMessageWriter, %class.AP_Mission*, i16, i32 }
%class.AP_Mission = type <{ %"struct.AP_Mission::Mission_Flags", %class.AP_AHRS*, %class.AP_ParamT.4, %class.AP_ParamT, i8, %class.AP_ParamT.4, [2 x i8], %class.Functor.7, %class.Functor.7, %class.Functor, %"struct.AP_Mission::Mission_Command", %"struct.AP_Mission::Mission_Command", i16, i16, i16, [15 x %"struct.AP_Mission::jump_tracking_struct"], [2 x i8], i32, [4 x i8] }>
%"struct.AP_Mission::Mission_Flags" = type { i32, i8 }
%class.AP_AHRS = type <{ i32 (...)**, float, float, float, i32, i32, i32, i8, [3 x i8], %class.AP_ParamT.0, %class.AP_ParamT.0, %class.AP_ParamT.0, %class.AP_ParamT.0, %class.AP_ParamT, %class.AP_ParamT, %class.AP_ParamT, %class.AP_ParamT, %class.AP_ParamT, %class.AP_ParamT, [2 x i8], %class.AP_ParamT.0, %class.AP_ParamT.0, %class.AP_ParamT.0, %class.Matrix3, %"struct.AP_AHRS::ahrs_flags", [3 x i8], i32, [4 x i8], %class.Compass*, %class.OpticalFlow*, %class.AP_Airspeed*, %class.AP_Beacon*, i32, %class.AP_ParamV, %class.Vector3, %class.Matrix3, %class.Matrix3, float, [3 x %class.Vector3], %class.Vector3, %struct.Vector2, %struct.Vector2, %struct.Vector2, %struct.Location, i8, [3 x i8], float, float, float, float, float, float, i8, [7 x i8], %class.AP_AHRS_View*, float, float, i32, [4 x i8] }>
%class.AP_ParamT.0 = type { float }
%"struct.AP_AHRS::ahrs_flags" = type { i8 }
%class.Compass = type <{ %struct.anon.1, [3 x i8], i8, i8, i8, i8, i8, [3 x %class.AP_Compass_Backend*], i8, i8, %class.AP_ParamT, i8, [4 x i8], %class.Matrix3*, %class.AP_ParamT, [3 x i8], %class.AP_ParamT.0, %class.AP_ParamT, i8, %class.AP_ParamT, %class.AP_ParamT, float, [3 x %"struct.Compass::mag_state"], %class.AP_ParamT.4, [6 x i8], [3 x %class.CompassCalibrator], %class.Compass_PerMotor, i8, [3 x i8], %class.AP_ParamT.0, %class.AP_ParamT.2, %class.AP_ParamT, [3 x i8] }>
%struct.anon.1 = type { %class.Vector3, float, [3 x i8], [3 x %class.Vector3] }
%class.AP_Compass_Backend = type { i32 (...)**, %class.Compass*, %"class.AP_HAL::Semaphore"*, float, i32 }
%"class.AP_HAL::Semaphore" = type { i32 (...)** }
%"struct.Compass::mag_state" = type <{ %class.AP_ParamT, i8, %class.AP_ParamT, i8, %class.AP_ParamV, %class.AP_ParamV, %class.AP_ParamV, %class.AP_ParamT.2, %class.AP_ParamT, i8, [20 x %class.Vector3.3], [2 x i8], %class.AP_ParamV, %class.Vector3, %class.Vector3, i32, i32, i8, [3 x i8] }>
%class.Vector3.3 = type { i16, i16, i16 }
%class.CompassCalibrator = type { i8, i8, i8, i8, i8, i8, i32, i32, float, i32, i8, float, i8, i16, [10 x i8], %"class.CompassCalibrator::param_t", i16, %"class.CompassCalibrator::CompassSample"*, float, float, float, float, i16, i16, float }
%"class.CompassCalibrator::param_t" = type { float, %class.Vector3, %class.Vector3, %class.Vector3 }
%"class.CompassCalibrator::CompassSample" = type { %"class.CompassCalibrator::AttitudeSample", i16, i16, i16 }
%"class.CompassCalibrator::AttitudeSample" = type { i8, i8, i8 }
%class.Compass_PerMotor = type <{ %class.Compass*, %class.AP_ParamT, [3 x i8], %class.AP_ParamT.0, [4 x %class.AP_ParamV], %class.Vector3, [4 x %class.Vector3], [4 x float], [4 x i16], [4 x i32], float, i8, i8, [4 x i8], [2 x i8] }>
%class.AP_ParamT.2 = type { i32 }
%class.OpticalFlow = type { %class.AP_AHRS_NavEKF*, %class.OpticalFlow_backend*, %"struct.OpticalFlow::AP_OpticalFlow_Flags", %class.AP_ParamT, %class.AP_ParamT.4, %class.AP_ParamT.4, %class.AP_ParamT.4, %class.AP_ParamV, %class.AP_ParamT, %"struct.OpticalFlow::OpticalFlow_state", i32 }
%class.AP_AHRS_NavEKF = type <{ %class.AP_AHRS_DCM.base, [4 x i8], %class.NavEKF2*, %class.NavEKF3*, i8, i8, i8, i8, %class.Matrix3, %class.Vector3, %class.Vector3, %class.Vector3, [3 x %class.Vector3], %class.Vector3, i16, [2 x i8], i32, i32, %"class.SITL::SITL"*, i32, [4 x i8] }>
%class.AP_AHRS_DCM.base = type { %class.AP_AHRS.base, float, float, %class.Matrix3, %class.Matrix3, %class.Vector3, %class.Vector3, %class.Vector3, %class.Vector3, float, %class.Vector3, [3 x %class.Vector3], float, i16, float, float, i32, [3 x %class.Vector3], %class.Vector3, float, i32, float, %struct.Vector2, i8, i32, i32, float, float, i8, %class.Vector3, %class.Vector3, i32, float, i32, %class.Vector3, float, i32, i32 }
%class.AP_AHRS.base = type <{ i32 (...)**, float, float, float, i32, i32, i32, i8, [3 x i8], %class.AP_ParamT.0, %class.AP_ParamT.0, %class.AP_ParamT.0, %class.AP_ParamT.0, %class.AP_ParamT, %class.AP_ParamT, %class.AP_ParamT, %class.AP_ParamT, %class.AP_ParamT, %class.AP_ParamT, [2 x i8], %class.AP_ParamT.0, %class.AP_ParamT.0, %class.AP_ParamT.0, %class.Matrix3, %"struct.AP_AHRS::ahrs_flags", [3 x i8], i32, [4 x i8], %class.Compass*, %class.OpticalFlow*, %class.AP_Airspeed*, %class.AP_Beacon*, i32, %class.AP_ParamV, %class.Vector3, %class.Matrix3, %class.Matrix3, float, [3 x %class.Vector3], %class.Vector3, %struct.Vector2, %struct.Vector2, %struct.Vector2, %struct.Location, i8, [3 x i8], float, float, float, float, float, float, i8, [7 x i8], %class.AP_AHRS_View*, float, float, i32 }>
%class.NavEKF2 = type <{ i8, i8, [6 x i8], %class.NavEKF2_core*, %class.AP_AHRS*, %class.RangeFinder*, i32, i8, %class.AP_ParamT, [2 x i8], %class.AP_ParamT.0, %class.AP_ParamT.0, %class.AP_ParamT.0, %class.AP_ParamT.0, %class.AP_ParamT.0, %class.AP_ParamT.0, %class.AP_ParamT.0, %class.AP_ParamT.0, %class.AP_ParamT.0, %class.AP_ParamT.0, %class.AP_ParamT.0, %class.AP_ParamT.0, %class.AP_ParamT.0, %class.AP_ParamT.0, %class.AP_ParamT.4, %class.AP_ParamT.4, %class.AP_ParamT, i8, %class.AP_ParamT.4, %class.AP_ParamT.4, %class.AP_ParamT.4, %class.AP_ParamT.4, %class.AP_ParamT.4, %class.AP_ParamT, %class.AP_ParamT, [2 x i8], %class.AP_ParamT.0, %class.AP_ParamT.4, %class.AP_ParamT, i8, %class.AP_ParamT.4, [2 x i8], %class.AP_ParamT.0, %class.AP_ParamT, [3 x i8], %class.AP_ParamT.0, %class.AP_ParamT.0, %class.AP_ParamT, %class.AP_ParamT, %class.AP_ParamT.4, %class.AP_ParamT.0, %class.AP_ParamT, [3 x i8], %class.AP_ParamT.0, %class.AP_ParamT.4, %class.AP_ParamT, %class.AP_ParamT, %class.AP_ParamT.0, %class.AP_ParamT.0, %class.AP_ParamT.4, %class.AP_ParamT, i8, %class.AP_ParamT.0, %class.AP_ParamT, %class.AP_ParamT, [2 x i8], float, float, float, i8, i8, i16, i16, i16, i16, i16, i16, i16, float, float, i8, i8, [2 x i8], float, float, float, float, i8, i8, i16, float, i8, i8, %struct.anon.23, [5 x i8], i64, %struct.anon.24, %struct.anon.25, %struct.anon.26, i8, i8, [2 x i8] }>
%class.NavEKF2_core = type opaque
%class.RangeFinder = type <{ %class.AP_ParamT.4, [6 x i8], [2 x %"struct.RangeFinder::RangeFinder_State"], [2 x %class.AP_RangeFinder_Backend*], i8, [3 x i8], float, %class.AP_SerialManager*, %class.Vector3, [4 x i8] }>
%"struct.RangeFinder::RangeFinder_State" = type { i16, i16, i32, i8, i8, i16, i16, %class.AP_ParamT, %class.AP_ParamT, %class.AP_ParamT, %class.AP_ParamT, %class.AP_ParamT.4, %class.AP_ParamT.0, %class.AP_ParamT.0, %class.AP_ParamT, %class.AP_ParamT.4, %class.AP_ParamT.4, %class.AP_ParamT, %class.AP_ParamT, %class.AP_ParamV, %class.AP_ParamT, %"struct.AP_Param::GroupInfo"* }
%"struct.AP_Param::GroupInfo" = type { i8, i8, i8*, i64, %union.anon.15, i16 }
%union.anon.15 = type { %"struct.AP_Param::GroupInfo"* }
%class.AP_RangeFinder_Backend = type { i32 (...)**, %"struct.RangeFinder::RangeFinder_State"*, %"class.AP_HAL::Semaphore"* }
%class.AP_SerialManager = type { [7 x %"struct.AP_SerialManager::UARTState"] }
%"struct.AP_SerialManager::UARTState" = type { %class.AP_ParamT, %class.AP_ParamT.2, %"class.AP_HAL::UARTDriver"* }
%"class.AP_HAL::UARTDriver" = type { %"class.AP_HAL::BetterStream" }
%"class.AP_HAL::BetterStream" = type { i32 (...)** }
%struct.anon.23 = type { i8 }
%struct.anon.24 = type { i32, i8, i32, float }
%struct.anon.25 = type { i32, i8, i32, %struct.Vector2 }
%struct.anon.26 = type { i32, i8, i32, float }
%class.NavEKF3 = type <{ i8, i8, [6 x i8], %class.NavEKF3_core*, %class.AP_AHRS*, %class.RangeFinder*, i32, i8, %class.AP_ParamT, [2 x i8], %class.AP_ParamT.0, %class.AP_ParamT.0, %class.AP_ParamT.0, %class.AP_ParamT.0, %class.AP_ParamT.0, %class.AP_ParamT.0, %class.AP_ParamT.0, %class.AP_ParamT.0, %class.AP_ParamT.0, %class.AP_ParamT.0, %class.AP_ParamT.0, %class.AP_ParamT.0, %class.AP_ParamT.0, %class.AP_ParamT.0, %class.AP_ParamT.4, %class.AP_ParamT, i8, %class.AP_ParamT.4, %class.AP_ParamT.4, %class.AP_ParamT.4, %class.AP_ParamT.4, %class.AP_ParamT.4, %class.AP_ParamT, %class.AP_ParamT, %class.AP_ParamT.0, %class.AP_ParamT.4, %class.AP_ParamT, i8, %class.AP_ParamT.4, [2 x i8], %class.AP_ParamT.0, %class.AP_ParamT, [3 x i8], %class.AP_ParamT.0, %class.AP_ParamT, %class.AP_ParamT, %class.AP_ParamT.4, %class.AP_ParamT.0, %class.AP_ParamT, [3 x i8], %class.AP_ParamT.0, %class.AP_ParamT.4, %class.AP_ParamT, %class.AP_ParamT, %class.AP_ParamT.0, %class.AP_ParamT.0, %class.AP_ParamT.4, %class.AP_ParamT, i8, %class.AP_ParamT.0, %class.AP_ParamT.0, %class.AP_ParamT, %class.AP_ParamT, [2 x i8], %class.AP_ParamT.0, %class.AP_ParamT.0, %class.AP_ParamT.0, float, float, float, i16, i16, i16, i16, i16, i16, i16, i16, i32, float, float, i16, i16, float, float, float, float, i8, [3 x i8], i32, i16, [2 x i8], float, i8, i8, i16, i8, %struct.anon.27, [6 x i8], i64, %struct.anon.28, %struct.anon.29, %struct.anon.30, i8, [7 x i8], [7 x i8], i8, [4 x i8] }>
%class.NavEKF3_core = type opaque
%struct.anon.27 = type { i8 }
%struct.anon.28 = type { i32, i8, i32, float }
%struct.anon.29 = type { i32, i8, i32, %struct.Vector2 }
%struct.anon.30 = type { i32, i8, i32, float }
%"class.SITL::SITL" = type { %"struct.SITL::sitl_fdm", i16, i8, float, %class.AP_ParamT.0, %class.AP_ParamT.0, %class.AP_ParamT.0, %class.AP_ParamT.0, %class.AP_ParamV, %class.AP_ParamT.0, %class.AP_ParamT.0, %class.AP_ParamV, %class.AP_ParamV, %class.AP_ParamT.0, %class.AP_ParamT.0, %class.AP_ParamT.0, %class.AP_ParamT.0, %class.AP_ParamT.0, %class.AP_ParamT.0, %class.AP_ParamT.0, %class.AP_ParamT.0, %class.AP_ParamT.4, %class.AP_ParamT.4, %class.AP_ParamT, %class.AP_ParamT.0, %class.AP_ParamT.0, %class.AP_ParamV, %class.AP_ParamV, %class.AP_ParamV, %class.AP_ParamV, %class.AP_ParamT, %class.AP_ParamT.0, %class.AP_ParamT.0, %class.AP_ParamT.0, %class.AP_ParamT.0, %class.AP_ParamT.0, %class.AP_ParamT.0, %class.AP_ParamT.0, %class.AP_ParamT, %class.AP_ParamT, %class.AP_ParamT, %class.AP_ParamT, %class.AP_ParamT, %class.AP_ParamT, %class.AP_ParamT.0, %class.AP_ParamT, %class.AP_ParamV, %class.AP_ParamV, %class.AP_ParamT, %class.AP_ParamT.0, %class.AP_ParamT.0, %class.AP_ParamT, %class.AP_ParamT, %class.AP_ParamT, %class.AP_ParamT, %class.AP_ParamT.4, %class.AP_ParamT, %class.AP_ParamT, %class.AP_ParamT.4, %class.AP_ParamT.0, %class.AP_ParamT, float, float, float, %class.AP_ParamT.0, %class.AP_ParamT.0, %class.AP_ParamT.0, %class.AP_ParamT.0, %class.AP_ParamT.0, %class.AP_ParamT, %class.AP_ParamT.0, %class.AP_ParamT.0, %class.AP_ParamT.4, %class.AP_ParamT.4, %class.AP_ParamT.4, %class.AP_ParamT.4, %class.AP_ParamT.0, %class.AP_ParamT.0, %class.AP_ParamT, %class.AP_ParamV, %class.AP_ParamT.0, %class.AP_ParamV, %class.AP_ParamV, %class.AP_ParamV, %class.AP_ParamV, %class.AP_ParamT.0, %class.AP_ParamT.0, %class.AP_ParamT.0, %class.AP_ParamT.0, %class.AP_ParamT, i16 }
%"struct.SITL::sitl_fdm" = type { i64, %struct.Location, double, double, double, double, double, double, double, double, double, double, double, double, double, double, double, double, %class.Quaternion, double, double, double, double, double, i8, [8 x float], double, %class.Vector3, %class.Vector3 }
%class.Quaternion = type { float, float, float, float }
%class.OpticalFlow_backend = type { i32 (...)**, %class.OpticalFlow*, %"class.AP_HAL::Semaphore"* }
%"struct.OpticalFlow::AP_OpticalFlow_Flags" = type { i8 }
%"struct.OpticalFlow::OpticalFlow_state" = type { i8, i8, %struct.Vector2, %struct.Vector2 }
%class.AP_Airspeed = type { %class.AP_ParamT, [3 x i8], [2 x %struct.anon.5], [2 x %"struct.AP_Airspeed::airspeed_state"], i8, [2 x %class.AP_Airspeed_Backend*] }
%struct.anon.5 = type <{ %class.AP_ParamT.0, %class.AP_ParamT.0, %class.AP_ParamT.0, %class.AP_ParamT, %class.AP_ParamT, %class.AP_ParamT, %class.AP_ParamT, %class.AP_ParamT, %class.AP_ParamT, %class.AP_ParamT, i8 }>
%"struct.AP_Airspeed::airspeed_state" = type <{ float, float, float, float, float, float, i8, [3 x i8], float, i32, i8, [3 x i8], %struct.anon.6, %class.Airspeed_Calibration, float, i8, [3 x i8] }>
%struct.anon.6 = type { i32, i16, float, i16 }
%class.Airspeed_Calibration = type { %class.Matrix3, float, float, %class.Vector3, float }
%class.AP_Airspeed_Backend = type opaque
%class.AP_Beacon = type <{ %class.AP_ParamT, [3 x i8], %class.AP_ParamT.0, %class.AP_ParamT.0, %class.AP_ParamT.0, %class.AP_ParamT.4, [6 x i8], %class.AP_Beacon_Backend*, %class.AP_SerialManager*, %class.Vector3, float, i32, i8, [3 x i8], [4 x %"struct.AP_Beacon::BeaconState"], [5 x %struct.Vector2], i8, i8, [6 x i8] }>
%class.AP_Beacon_Backend = type opaque
%"struct.AP_Beacon::BeaconState" = type { i16, i8, float, i32, %class.Vector3 }
%class.AP_ParamV = type { %class.Vector3 }
%class.Matrix3 = type { %class.Vector3, %class.Vector3, %class.Vector3 }
%class.Vector3 = type { float, float, float }
%struct.Vector2 = type { float, float }
%struct.Location = type { %union.anon, [3 x i8], i32, i32 }
%union.anon = type { %struct.Location_Option_Flags }
%struct.Location_Option_Flags = type { i8 }
%class.AP_AHRS_View = type opaque
%class.AP_ParamT.4 = type { i16 }
%class.Functor.7 = type { i8*, i1 (i8*, %"struct.AP_Mission::Mission_Command"*)* }
%"struct.AP_Mission::Mission_Command" = type <{ i16, i16, i16, %"union.AP_Mission::Content" }>
%"union.AP_Mission::Content" = type { %"struct.AP_Mission::Mount_Control" }
%"struct.AP_Mission::Mount_Control" = type { float, float, float }
%"struct.AP_Mission::jump_tracking_struct" = type { i16, i16 }
%"struct.DataFlash_Class::log_write_fmt" = type { %"struct.DataFlash_Class::log_write_fmt"*, i8, i8, i8, i8*, i8*, i8*, i8*, i8* }
%class.GCS_MAVLINK = type <{ i32 (...)**, i8, [3 x i8], i32, i16, i8, i8, i16, i16, %class.AP_Param*, i32, [10 x %class.AP_ParamT.4], %struct.anon.8, %class.Vector3, [4 x i8], %"class.AP_HAL::UARTDriver"*, i32, %"struct.AP_Param::ParamToken", i16, i16, i32, i16, i16, i16, i16, i32, i32, i16, [10 x i8], i8, [3 x i8], i8*, i8*, [16 x i8], [16 x i8], [48 x i8], i8, i8, [6 x i8], %struct.__mavlink_signing, %struct.anon.10, %struct.anon.13, %struct.Location, [4 x i8] }>
%struct.anon.8 = type <{ i64, i32, i16, [2 x i8] }>
%struct.__mavlink_signing = type { i8, i8, i64, [32 x i8], i1 (%struct.__mavlink_status*, i32)* }
%struct.__mavlink_status = type { i8, i8, i8, i32, i8, i8, i8, i16, i16, i8, i8, %struct.__mavlink_signing*, %struct.__mavlink_signing_streams* }
%struct.__mavlink_signing_streams = type { i16, [16 x %"struct.__mavlink_signing_streams::__mavlink_signing_stream"] }
%"struct.__mavlink_signing_streams::__mavlink_signing_stream" = type { i8, i8, i8, [6 x i8] }
%struct.anon.10 = type <{ %class.Functor.11, i32, i32, i8, [7 x i8] }>
%class.Functor.11 = type { i8*, i1 (i8*, i8, %"class.AP_HAL::UARTDriver"*)* }
%struct.anon.13 = type { i8, i64, i32, i64 }
%class.AP_Frsky_Telem = type <{ %class.AP_AHRS*, %class.AP_BattMonitor*, %class.RangeFinder*, %"class.AP_HAL::UARTDriver"*, i32, i8, i8, i16, i8*, %struct.anon.16, [7 x i8], %struct.anon.17, i32, i32, i8, i8, %struct.anon.18, %struct.anon.19, %struct.anon.20, [3 x i8], %struct.anon.21, %struct.anon.22, [4 x i8] }>
%class.AP_BattMonitor = type <{ i32 (...)**, [2 x %class.AP_BattMonitor_Params], [2 x %"struct.AP_BattMonitor::BattMonitor_State"], [2 x %class.AP_BattMonitor_Backend*], i32, i8, [3 x i8], %class.Functor.14, i8*, i8, i8, [6 x i8] }>
%class.AP_BattMonitor_Params = type <{ %class.AP_ParamT, %class.AP_ParamT, %class.AP_ParamT, i8, %class.AP_ParamT.0, %class.AP_ParamT.0, %class.AP_ParamT.0, %class.AP_ParamT.2, %class.AP_ParamT.4, [2 x i8], %class.AP_ParamT.2, %class.AP_ParamT, %class.AP_ParamT, [2 x i8], %class.AP_ParamT.0, %class.AP_ParamT.0, %class.AP_ParamT.0, %class.AP_ParamT.0, %class.AP_ParamT, %class.AP_ParamT, [2 x i8] }>
%"struct.AP_BattMonitor::BattMonitor_State" = type { %"struct.AP_BattMonitor::cells", float, float, float, float, i32, i32, i32, float, i32, float, float, i32, i8 }
%"struct.AP_BattMonitor::cells" = type { [10 x i16] }
%class.AP_BattMonitor_Backend = type opaque
%class.Functor.14 = type { i8*, void (i8*, i8*, i8)* }
%struct.anon.16 = type { i8 }
%struct.anon.17 = type { i8, i32, i32*, i32 }
%struct.anon.18 = type { i8, i8, i16, i16, i16, i16, i16, i16, i16, i16, i16, i16 }
%struct.anon.19 = type { i8, i8, i8, i32, i32, i32, i32, i32, i32, i32, i32 }
%struct.anon.20 = type { i8, i8, i8, i8, i8 }
%struct.anon.21 = type { i32, i32 }
%struct.anon.22 = type { i32, i8, i8 }
%class.ObjectArray = type <{ %"struct.GCS::statustext_t"*, i16, i16, i16, [2 x i8] }>
%"struct.GCS::statustext_t" = type { i8, %struct.__mavlink_statustext_t }
%struct.__mavlink_statustext_t = type { i8, [50 x i8] }
%"class.AP_HAL::HAL" = type { i32 (...)**, %"class.AP_HAL::UARTDriver"*, %"class.AP_HAL::UARTDriver"*, %"class.AP_HAL::UARTDriver"*, %"class.AP_HAL::UARTDriver"*, %"class.AP_HAL::UARTDriver"*, %"class.AP_HAL::UARTDriver"*, %"class.AP_HAL::UARTDriver"*, %"class.AP_HAL::I2CDeviceManager"*, %"class.AP_HAL::SPIDeviceManager"*, %"class.AP_HAL::AnalogIn"*, %"class.AP_HAL::Storage"*, %"class.AP_HAL::UARTDriver"*, %"class.AP_HAL::GPIO"*, %"class.AP_HAL::RCInput"*, %"class.AP_HAL::RCOutput"*, %"class.AP_HAL::Scheduler"*, %"class.AP_HAL::Util"*, %"class.AP_HAL::OpticalFlow"*, %"class.AP_HAL::CANManager"** }
%"class.AP_HAL::I2CDeviceManager" = type opaque
%"class.AP_HAL::SPIDeviceManager" = type { i32 (...)** }
%"class.AP_HAL::AnalogIn" = type { i32 (...)** }
%"class.AP_HAL::Storage" = type { i32 (...)** }
%"class.AP_HAL::GPIO" = type { i32 (...)** }
%"class.AP_HAL::RCInput" = type { i32 (...)** }
%"class.AP_HAL::RCOutput" = type { i32 (...)** }
%"class.AP_HAL::Scheduler" = type <{ i32 (...)**, i16, [6 x i8], void ()*, i8, [7 x i8] }>
%"class.AP_HAL::Util" = type { i32 (...)**, i8, i64 }
%"class.AP_HAL::OpticalFlow" = type { i32 (...)** }
%"class.AP_HAL::CANManager" = type opaque
%"struct.AP_Mission::Jump_Command" = type { i16, i16 }
%class.MAVLink_routing = type <{ i8, [3 x i8], [20 x %"struct.MAVLink_routing::route"], i8, [3 x i8] }>
%"struct.MAVLink_routing::route" = type { i8, i8, i32, i8 }
%struct.__mavlink_system = type { i8, i8 }
%"struct.GCS_MAVLINK::stream_entries" = type { i8, i8*, i8 }
%class.AP_Proximity = type <{ [1 x %"struct.AP_Proximity::Proximity_State"], [1 x %class.AP_Proximity_Backend*], %class.RangeFinder*, i8, [7 x i8], %class.AP_SerialManager*, [1 x %class.AP_ParamT], [1 x %class.AP_ParamT], [1 x %class.AP_ParamT.4], [6 x %class.AP_ParamT.4], [6 x %class.AP_ParamT], [2 x i8] }>
%"struct.AP_Proximity::Proximity_State" = type { i8, i32 }
%class.AP_Proximity_Backend = type opaque
%class.AP_Notify = type <{ %class.AP_ParamT, %class.AP_ParamT, %class.AP_ParamT, %class.AP_ParamT, %class.AP_ParamT, %class.AP_ParamT, [2 x i8], %class.AP_ParamT.2, [51 x i8], i8, i32, [5 x i8], [3 x i8] }>
%class.SRV_Channel = type { %class.AP_ParamT.4, %class.AP_ParamT.4, %class.AP_ParamT.4, %class.AP_ParamT, %class.AP_ParamT, i16, i8, i8, i16 }
%struct.__mavlink_mission_request_t = type <{ i16, i8, i8, i8 }>
%struct.__mavlink_meminfo_t = type { i16, i16, i32 }
%struct.__mavlink_power_status_t = type { i16, i16, i16 }
%struct.__mavlink_battery_status_t = type <{ i32, i32, i16, [10 x i16], i16, i8, i8, i8, i8, i32, i8 }>
%struct.__mavlink_distance_sensor_t = type <{ i32, i16, i16, i16, i8, i8, i8, i8 }>
%struct.__mavlink_rangefinder_t = type { float, float }
%"struct.AP_Proximity::Proximity_Distance_Array" = type { [8 x i8], [8 x float] }
%struct.__mavlink_ahrs2_t = type { float, float, float, float, i32, i32 }
%struct.__mavlink_ahrs3_t = type { float, float, float, float, i32, i32, float, float, float, float }
%struct.__mavlink_message = type <{ i16, i8, i8, i8, i8, i8, i8, i8, [3 x i8], [33 x i64], [2 x i8], [13 x i8] }>
%struct.__mavlink_mission_request_list_t = type { i8, i8, i8 }
%struct.__mavlink_mission_count_t = type <{ i16, i8, i8, i8 }>
%struct.__mavlink_mission_request_int_t = type <{ i16, i8, i8, i8 }>
%struct.__mavlink_mission_item_int_t = type <{ float, float, float, float, i32, i32, float, i16, i16, i8, i8, i8, i8, i8, i8 }>
%struct.__mavlink_mission_item_t = type <{ float, float, float, float, float, float, float, i16, i16, i8, i8, i8, i8, i8, i8 }>
%struct.__mavlink_mission_ack_t = type { i8, i8, i8, i8 }
%struct.__mavlink_mission_set_current_t = type { i16, i8, i8 }
%struct.__mavlink_mission_current_t = type { i16 }
%struct.__mavlink_mission_clear_all_t = type { i8, i8, i8 }
%struct.__mavlink_mission_write_partial_list_t = type <{ i16, i16, i8, i8, i8 }>
%struct.__va_list_tag = type { i32, i32, i8*, i8* }
%class.AP_Mount = type <{ %class.AP_AHRS_NavEKF*, %struct.Location*, %class.AP_ParamT, i8, i8, [5 x i8], [1 x %class.AP_Mount_Backend*], [1 x %"struct.AP_Mount::mount_state"], [4 x i8] }>
%class.AP_Mount_Backend = type opaque
%"struct.AP_Mount::mount_state" = type { %class.AP_ParamT, %class.AP_ParamT, %class.AP_ParamT, %class.AP_ParamT, %class.AP_ParamT, %class.AP_ParamT, %class.AP_ParamT, %class.AP_ParamT, %class.AP_ParamT.4, %class.AP_ParamT.4, %class.AP_ParamT.4, %class.AP_ParamT.4, %class.AP_ParamT.4, %class.AP_ParamT.4, %class.AP_ParamV, %class.AP_ParamV, %class.AP_ParamT.0, %class.AP_ParamT.0, i32, %struct.Location }
%struct.__mavlink_radio_t = type <{ i16, i16, i8, i8, i8, i8, i8 }>
%class.AP_RTC = type { %class.AP_ParamT, i8, i64 }
%struct.__mavlink_system_time_t = type <{ i64, i32 }>
%class.AP_RSSI = type { %class.AP_ParamT, %class.AP_ParamT, %class.AP_ParamT.0, %class.AP_ParamT.0, %class.AP_ParamT, %class.AP_ParamT.4, %class.AP_ParamT.4, %"class.AP_HAL::AnalogSource"* }
%"class.AP_HAL::AnalogSource" = type { i32 (...)** }
%struct.__mavlink_rc_channels_raw_t = type <{ i32, i16, i16, i16, i16, i16, i16, i16, i16, i8, i8 }>
%struct.__mavlink_rc_channels_t = type <{ i32, i16, i16, i16, i16, i16, i16, i16, i16, i16, i16, i16, i16, i16, i16, i16, i16, i16, i16, i8, i8 }>
%class.AP_InertialSensor = type <{ %class.AP_AccelCal_Client, %"class.AP_InertialSensor::BatchSampler", [6 x %class.AP_InertialSensor_Backend*], i8, i8, i8, i8, i16, [2 x i8], float, float, [3 x %class.Vector3], [3 x %class.Vector3], [3 x float], [3 x i8], i8, [3 x %class.Vector3], [3 x float], [3 x %class.LowPassFilter2p], [3 x %class.LowPassFilter2p], [3 x %class.Vector3], [3 x %class.Vector3], [3 x i8], [3 x i8], [2 x i8], %class.NotchFilterVector3fParam, [3 x %class.Vector3], [3 x %class.Vector3], [3 x float], [3 x i8], i8, [3 x float], [3 x %class.Vector3], [3 x %class.Vector3], [3 x %class.Vector3], i8, i8, [3 x i16], [3 x i16], %class.AP_ParamT.4, [3 x %class.AP_ParamT.2], [3 x %class.AP_ParamT.2], [3 x %class.AP_ParamV], [3 x %class.AP_ParamV], [3 x %class.AP_ParamV], [3 x %class.AP_ParamV], [3 x float], [3 x float], [3 x float], [3 x i8], [3 x i8], [6 x i8], [3 x i64], [3 x i64], [3 x i16], [2 x i8], [3 x i32], [3 x i16], [2 x i8], [3 x i32], [3 x float], %class.AP_ParamT, %class.AP_ParamT, %class.AP_ParamT, [3 x %class.AP_ParamT], %class.AP_ParamT, %class.AP_ParamT, i8, [3 x i8], %class.Matrix3*, [3 x i8], [3 x i8], [3 x i8], [3 x i8], i8, i8, [2 x i8], i32, i8, [3 x i8], float, i32, i32, i32, i32, [3 x i8], [3 x i8], [2 x i8], [3 x i32], [3 x i32], [3 x i32], [2 x %class.LowPassFilter], [2 x %class.LowPassFilter], %"struct.AP_InertialSensor::PeakHoldState", %class.AP_ParamT.0, %struct.anon.33, %class.AP_ParamT, %class.AP_ParamT, [6 x i8], %class.AP_AccelCal*, %class.AccelCalibrator*, float, float, i8, i8, [2 x i8], [3 x i32], [3 x i32], i8, [3 x i8], i32, [4 x i8] }>
%class.AP_AccelCal_Client = type { i32 (...)** }
%"class.AP_InertialSensor::BatchSampler" = type { %class.AP_ParamT.4, %class.AP_ParamT, %class.AP_ParamT, %class.AP_ParamT.4, %class.AP_ParamT, i64, i8, i16, i16*, i16*, i16*, i16, i16, i32, i16, %class.AP_InertialSensor* }
%class.AP_InertialSensor_Backend = type { i32 (...)**, %class.AP_InertialSensor*, %"class.AP_HAL::Semaphore"*, i16, [3 x i8], [3 x i8] }
%class.LowPassFilter2p = type { %"struct.DigitalBiquadFilter<Vector3<float> >::biquad_params", %class.DigitalBiquadFilter }
%"struct.DigitalBiquadFilter<Vector3<float> >::biquad_params" = type { float, float, float, float, float, float, float }
%class.DigitalBiquadFilter = type { %class.Vector3, %class.Vector3 }
%class.NotchFilterVector3fParam = type { %class.AP_ParamT, %class.AP_ParamT.0, %class.AP_ParamT.0, %class.AP_ParamT.0, float, float, float, float, %class.NotchFilter }
%class.NotchFilter = type { i8, float, float, float, float, float, float, %class.Vector3, %class.Vector3, %class.Vector3, %class.Vector3, %class.Vector3 }
%class.LowPassFilter = type { float, %class.DigitalLPF }
%class.DigitalLPF = type { %class.Vector3, float }
%"struct.AP_InertialSensor::PeakHoldState" = type { float, i32 }
%struct.anon.33 = type { float }
%class.AP_AccelCal = type <{ %class.GCS_MAVLINK*, i8, i8, [2 x i8], i32, i8, [3 x i8], i32, i32, i8, i8, i8, i8 }>
%class.AccelCalibrator = type <{ i8, [3 x i8], float, i32, float, i32, [4 x i8], %"struct.AccelCalibrator::AccelSample"*, i8, [3 x i8], %"union.AccelCalibrator::param_u", float, i32, float, [4 x i8] }>
%"struct.AccelCalibrator::AccelSample" = type { %class.Vector3, float }
%"union.AccelCalibrator::param_u" = type { %"struct.AccelCalibrator::param_t" }
%"struct.AccelCalibrator::param_t" = type { %class.Vector3, %class.Vector3, %class.Vector3 }
%struct.__mavlink_raw_imu_t = type <{ i64, i16, i16, i16, i16, i16, i16, i16, i16, i16 }>
%struct.__mavlink_scaled_imu2_t = type <{ i32, i16, i16, i16, i16, i16, i16, i16, i16, i16 }>
%struct.__mavlink_scaled_imu3_t = type <{ i32, i16, i16, i16, i16, i16, i16, i16, i16, i16 }>
%class.AP_Baro = type <{ %struct.anon.34, i8, [7 x i8], [3 x %class.AP_Baro_Backend*], i8, i8, [2 x i8], i32, [3 x %"struct.AP_Baro::sensor"], %class.AP_ParamT.0, float, %class.AP_ParamT, %class.AP_ParamT, [2 x i8], float, float, float, i32, %class.DerivativeFilter, %class.AP_ParamT.0, %class.AP_ParamT.0, i8, [3 x i8], float, i32, %class.AP_ParamT, [3 x i8] }>
%struct.anon.34 = type { float, float, float, float, i32, i8 }
%class.AP_Baro_Backend = type opaque
%"struct.AP_Baro::sensor" = type { i32, i32, i32, i8, float, float, float, %class.AP_ParamT.0, float }
%class.DerivativeFilter = type { %class.FilterWithBuffer.base, i8, float, [7 x i32] }
%class.FilterWithBuffer.base = type <{ %class.Filter, [7 x float], i8 }>
%class.Filter = type { i32 (...)** }
%struct.__mavlink_scaled_pressure3_t = type <{ i32, float, float, i16 }>
%struct.__mavlink_scaled_pressure_t = type <{ i32, float, float, i16 }>
%struct.__mavlink_scaled_pressure2_t = type <{ i32, float, float, i16 }>
%struct.__mavlink_sensor_offsets_t = type <{ float, i32, i32, float, float, float, float, float, float, i16, i16, i16 }>
%struct.__mavlink_ahrs_t = type { float, float, float, float, float, float, float }
%struct.__mavlink_battery2_t = type { i16, i16 }
%struct.__mavlink_set_mode_t = type <{ i32, i8, i8 }>
%struct.__mavlink_command_ack_t = type <{ i16, i8 }>
%struct.__mavlink_optical_flow_t = type <{ i64, float, float, float, i16, i16, i8, i8, float, float }>
%class.AP_FWVersion = type { i8, i8, i8, i32, i8*, i8*, i8*, i8*, i8*, i8* }
%struct.__mavlink_autopilot_version_t = type <{ i64, i64, i32, i32, i32, i32, i16, i16, [8 x i8], [8 x i8], [8 x i8], [18 x i8] }>
%struct.__mavlink_local_position_ned_t = type { i32, float, float, float, float, float, float }
%struct.__mavlink_vibration_t = type { i64, float, float, float, i32, i32, i32 }
%struct.__mavlink_named_value_float_t = type <{ i32, float, [10 x i8] }>
%struct.__mavlink_home_position_t = type <{ i32, i32, i32, float, float, float, [4 x float], float, float, float, i64 }>
%struct.__mavlink_gps_global_origin_t = type <{ i32, i32, i32, i64 }>
%struct.__mavlink_heartbeat_t = type <{ i32, i8, i8, i8, i8, i8 }>
%struct.__mavlink_servo_output_raw_t = type <{ i32, i16, i16, i16, i16, i16, i16, i16, i16, i8, i16, i16, i16, i16, i16, i16, i16, i16 }>
%"class.AP_Avoidance::Obstacle" = type { i32, i32, i32, %struct.Location, %class.Vector3, i32, float, float, float, float, i32 }
%struct.__mavlink_collision_t = type <{ i32, float, float, float, i8, i8, i8 }>
%struct.__mavlink_command_long_t = type <{ float, float, float, float, float, float, float, i16, i8, i8, i8 }>
%class.AP_GPS = type <{ [2 x %class.AP_ParamT], %class.AP_ParamT, %class.AP_ParamT, %class.AP_ParamT, i8, %class.AP_ParamT.4, %class.AP_ParamT, [3 x i8], i32, %class.AP_ParamT, %class.AP_ParamT, %class.AP_ParamT, [2 x %class.AP_ParamT], i8, [2 x %class.AP_ParamT.4], %class.AP_ParamT, %class.AP_ParamT, [2 x %class.AP_ParamV], [2 x %class.AP_ParamT.4], %class.AP_ParamT, [3 x i8], %class.AP_ParamT.0, i32, [3 x %"struct.AP_GPS::GPS_timing"], [3 x %"struct.AP_GPS::GPS_State"], [2 x %class.AP_GPS_Backend*], [2 x %"class.AP_HAL::UARTDriver"*], i8, [3 x i8], [2 x %"struct.AP_GPS::detect_state"], [4 x i8], [2 x %struct.anon.35], %"struct.AP_GPS::rtcm_buffer"*, [2 x %struct.Vector2], [2 x float], %class.Vector3, float, [2 x float], [2 x i32], float, i8, i8, [2 x i8] }>
%"struct.AP_GPS::GPS_timing" = type { i32, i32, i16 }
%"struct.AP_GPS::GPS_State" = type <{ i8, [3 x i8], i32, i32, i16, %struct.Location, [2 x i8], float, float, i16, i16, i8, [3 x i8], %class.Vector3, float, float, float, i8, [3 x i8], i32, i32, i16, [2 x i8], i32, i8, i8, [2 x i8], i32, i32, i32, i32, i32 }>
%class.AP_GPS_Backend = type opaque
%"struct.AP_GPS::detect_state" = type { i32, i8, i8, %struct.UBLOX_detect_state, %struct.MTK_detect_state, %struct.MTK19_detect_state, %struct.SIRF_detect_state, %struct.NMEA_detect_state, %struct.SBP_detect_state, %struct.SBP2_detect_state, %struct.ERB_detect_state }
%struct.UBLOX_detect_state = type { i8, i8, i8, i8, i8 }
%struct.MTK_detect_state = type { i8, i8, i8, i8 }
%struct.MTK19_detect_state = type { i8, i8, i8, i8 }
%struct.SIRF_detect_state = type { i16, i8, i8, i8 }
%struct.NMEA_detect_state = type { i8, i8 }
%struct.SBP_detect_state = type { i8, i16, i8, i8, i16, i16, [4 x i8], [2 x i8] }
%struct.SBP2_detect_state = type { i8, i16, i8, i8, i16, i16, [4 x i8], [2 x i8] }
%struct.ERB_detect_state = type { i8, i8, i8, i8, i8 }
%struct.anon.35 = type { i8*, i16 }
%"struct.AP_GPS::rtcm_buffer" = type { i8, i8, i8, i16, [720 x i8] }
%struct.__mavlink_vfr_hud_t = type { float, float, float, float, i16, i16 }
%class.AP_AdvancedFailsafe = type <{ i32 (...)**, i32, [4 x i8], %class.AP_Mission*, %class.AP_GPS*, %class.AP_ParamT, %class.AP_ParamT, %class.AP_ParamT, %class.AP_ParamT, %class.AP_ParamT, %class.AP_ParamT, %class.AP_ParamT, %class.AP_ParamT, %class.AP_ParamT.0, %class.AP_ParamT.2, %class.AP_ParamT.2, %class.AP_ParamT.0, %class.AP_ParamT, %class.AP_ParamT, %class.AP_ParamT, %class.AP_ParamT, %class.AP_ParamT, %class.AP_ParamT, i8, i8, i8, i8, [2 x i8], i32, i32, i8, [3 x i8] }>
%struct.__mavlink_timesync_t = type { i64, i64 }
%class.AP_Camera = type { %class.AP_ParamT, %class.AP_ParamT, %class.AP_ParamT, %class.AP_ParamT.4, %class.AP_ParamT.4, i8, %class.AP_Relay*, %class.AP_ParamT, i8, %class.AP_ParamT.0, %class.AP_ParamT.4, %class.AP_ParamT.4, i32, %struct.Location, i16, i16, %class.AP_ParamT, %class.AP_ParamT, i8, i8, i32, %struct.Location*, %class.AP_AHRS* }
%class.AP_Relay = type { [4 x %class.AP_ParamT], %class.AP_ParamT }
%struct.__mavlink_set_gps_global_origin_t = type <{ i32, i32, i32, i8, i64 }>
%class.AP_VisualOdom = type { %class.AP_ParamT, %class.AP_ParamV, %class.AP_ParamT, %class.AP_VisualOdom_Backend*, %"struct.AP_VisualOdom::VisualOdomState" }
%class.AP_VisualOdom_Backend = type opaque
%"struct.AP_VisualOdom::VisualOdomState" = type { %class.Vector3, %class.Vector3, i64, float, i32 }
%struct.__mavlink_vision_position_estimate_t = type <{ i64, float, float, float, float, float, float, [21 x float] }>
%struct.__mavlink_global_vision_position_estimate_t = type <{ i64, float, float, float, float, float, float, [21 x float] }>
%struct.__mavlink_vicon_position_estimate_t = type <{ i64, float, float, float, float, float, float, [21 x float] }>
%struct.__mavlink_att_pos_mocap_t = type { i64, [4 x float], float, float, float, [21 x float] }
%class.AP_Gripper = type { %class.AP_ParamT, %"struct.AP_Gripper::Backend_Config", %class.AP_Gripper_Backend* }
%"struct.AP_Gripper::Backend_Config" = type { %class.AP_ParamT, %class.AP_ParamT.4, %class.AP_ParamT.4, %class.AP_ParamT.4, %class.AP_ParamT, %class.AP_ParamT.4, i32 }
%class.AP_Gripper_Backend = type opaque
%struct.__mavlink_mission_item_reached_t = type { i16 }
%struct.__mavlink_hwstatus_t = type <{ i16, i8 }>
%struct.__mavlink_attitude_t = type { i32, float, float, float, float, float, float }
%struct.__mavlink_global_position_int_t = type { i32, i32, i32, i32, i32, i16, i16, i16, i16 }

$_ZN9AP_ParamTIsL11ap_var_type2EEC2Ev = comdat any

$_ZN11GCS_MAVLINKUt_C2Ev = comdat any

$_ZN7Vector3IfEC2Ev = comdat any

$_ZN11GCS_MAVLINKUt0_C2Ev = comdat any

$_ZN6AP_HAL4Util16set_capabilitiesEm = comdat any

$_ZNK14AP_BattMonitor13num_instancesEv = comdat any

$_ZNK11GCS_MAVLINK15packet_overheadEv = comdat any

$_ZNK22AP_RangeFinder_Backend8has_dataEv = comdat any

$_ZNK22AP_RangeFinder_Backend15min_distance_cmEv = comdat any

$_ZNK22AP_RangeFinder_Backend15max_distance_cmEv = comdat any

$_ZNK22AP_RangeFinder_Backend11distance_cmEv = comdat any

$_ZNK22AP_RangeFinder_Backend28get_mav_distance_sensor_typeEv = comdat any

$_ZNK22AP_RangeFinder_Backend11orientationEv = comdat any

$_ZN11RangeFinder13get_singletonEv = comdat any

$_ZN12AP_Proximity13get_singletonEv = comdat any

$_ZNK12AP_Proximity11num_sensorsEv = comdat any

$_ZNK22AP_RangeFinder_Backend10voltage_mvEv = comdat any

$_ZNK14AP_AHRS_NavEKF17get_NavEKF2_constEv = comdat any

$_ZNK7NavEKF211activeCoresEv = comdat any

$_ZNK10AP_Mission12num_commandsEv = comdat any

$_ZNK10AP_Mission19get_current_nav_cmdEv = comdat any

$_ZNK7FunctorIbJhPN6AP_HAL10UARTDriverEEEcvbEv = comdat any

$_ZNK7FunctorIbJhPN6AP_HAL10UARTDriverEEEclEhS2_ = comdat any

$_ZNK17AP_InertialSensor9get_accelEh = comdat any

$_ZNK17AP_InertialSensor8get_gyroEh = comdat any

$_ZNK7Compass9get_countEv = comdat any

$_ZNK7Compass9get_fieldEh = comdat any

$_ZN7Vector3IfE4zeroEv = comdat any

$_ZNK17AP_InertialSensor14get_gyro_countEv = comdat any

$_ZNK17AP_InertialSensor15get_accel_countEv = comdat any

$_ZNK7AP_Baro13num_instancesEv = comdat any

$_ZNK7AP_Baro12get_pressureEh = comdat any

$_ZNK7AP_Baro19get_ground_pressureEh = comdat any

$_ZNK7AP_Baro15get_temperatureEh = comdat any

$_ZN11AP_Airspeed13get_singletonEv = comdat any

$_ZNK11AP_Airspeed25get_differential_pressureEv = comdat any

$_ZNK7Compass11get_offsetsEh = comdat any

$_ZNK17AP_InertialSensor17get_accel_offsetsEh = comdat any

$_ZNK17AP_InertialSensor16get_gyro_offsetsEh = comdat any

$_ZNK7AP_Baro12get_pressureEv = comdat any

$_ZNK7AP_Baro15get_temperatureEv = comdat any

$_ZN11GCS_MAVLINK19active_channel_maskEv = comdat any

$_ZN11GCS_MAVLINK22streaming_channel_maskEv = comdat any

$_ZN11ObjectArrayIN3GCS12statustext_tEE10push_forceERKS1_ = comdat any

$_ZN9AP_Notify8instanceEv = comdat any

$_ZNK11ObjectArrayIN3GCS12statustext_tEE5emptyEv = comdat any

$_ZN11ObjectArrayIN3GCS12statustext_tEEixEt = comdat any

$_ZN11ObjectArrayIN3GCS12statustext_tEE6removeEt = comdat any

$_ZNK11OpticalFlow7healthyEv = comdat any

$_ZNK11OpticalFlow8flowRateEv = comdat any

$_ZNK11OpticalFlow8bodyRateEv = comdat any

$_ZNK11OpticalFlow7qualityEv = comdat any

$_ZNK6AP_HAL4Util16get_capabilitiesEv = comdat any

$_ZNK17AP_InertialSensor20get_vibration_levelsEv = comdat any

$_ZNK7AP_AHRS11home_is_setEv = comdat any

$_ZNK7AP_AHRS8get_homeEv = comdat any

$_ZN12SRV_Channels11srv_channelEh = comdat any

$_ZNK11SRV_Channel14get_output_pwmEv = comdat any

$_ZNK11AP_Airspeed7healthyEv = comdat any

$_ZNK11AP_Airspeed12get_airspeedEv = comdat any

$_ZNK6AP_GPS12ground_speedEv = comdat any

$_ZN7AP_AHRS11groundspeedEv = comdat any

$_ZN15DataFlash_Class8instanceEv = comdat any

$_ZN9AP_Camera20set_trigger_distanceEj = comdat any

$_ZN7Vector3IfEC2Efff = comdat any

$_ZN10QuaternionC2Ev = comdat any

$_ZN10QuaternionC2EPKf = comdat any

$_ZNK17AP_InertialSensor8get_acalEv = comdat any

$_ZNK11GCS_MAVLINK8get_chanEv = comdat any

$_ZN7Compass20set_and_save_offsetsEhiii = comdat any

$_ZNK6AP_HAL4Util14get_soft_armedEv = comdat any

$_ZNK10AP_Gripper7enabledEv = comdat any

$_ZNK10AP_Mission21get_current_nav_indexEv = comdat any

$_ZN3GCS15set_out_of_timeEb = comdat any

$_ZNK3GCS11out_of_timeEv = comdat any

$_ZN3GCS8instanceEv = comdat any

$_ZN11GCS_MAVLINK31send_position_target_global_intEv = comdat any

$_ZNK11GCS_MAVLINK11in_hil_modeEv = comdat any

$_ZN11GCS_MAVLINK13accept_packetERK16__mavlink_statusR17__mavlink_message = comdat any

$_ZNK11GCS_MAVLINK21get_advanced_failsafeEv = comdat any

$_ZNK11GCS_MAVLINK15get_visual_odomEv = comdat any

$_ZNK11GCS_MAVLINK19persist_streamratesEv = comdat any

$_ZNK11GCS_MAVLINK12params_readyEv = comdat any

$_ZNK11GCS_MAVLINK16vfr_hud_throttleEv = comdat any

$_ZN8AP_ParamC2Ev = comdat any

$_ZN7FunctorIbJhPN6AP_HAL10UARTDriverEEEC2Ev = comdat any

$_ZN7FunctorIbJhPN6AP_HAL10UARTDriverEEEC2EPvPFbS4_hS2_E = comdat any

$_ZNK9AP_ParamTIsL11ap_var_type2EEcvRKsEv = comdat any

$_ZNK9AP_ParamTIaL11ap_var_type1EEcvRKaEv = comdat any

$_ZNK9AP_ParamTIaL11ap_var_type1EE3getEv = comdat any

$_ZNK9AP_ParamTIfL11ap_var_type4EE3getEv = comdat any

$_ZNK11AP_Airspeed25get_differential_pressureEh = comdat any

$_ZNK9AP_ParamVI7Vector3IfEL11ap_var_type5EEcvRKS1_Ev = comdat any

$_ZNK11AP_Airspeed7healthyEh = comdat any

$_ZNK9AP_ParamTIfL11ap_var_type4EEcvRKfEv = comdat any

$_ZNK11AP_Airspeed7enabledEh = comdat any

$_ZNK11AP_Airspeed12get_airspeedEh = comdat any

$_ZNK6AP_GPS12ground_speedEh = comdat any

$_ZN9AP_ParamTIfL11ap_var_type4EE3setERKf = comdat any

$_ZNK11ObjectArrayIN3GCS12statustext_tEE5spaceEv = comdat any

$_ZN11ObjectArrayIN3GCS12statustext_tEE3popEv = comdat any

$_ZN11ObjectArrayIN3GCS12statustext_tEE4pushERKS1_ = comdat any

@_ZL17DEG_TO_RAD_DOUBLE = internal global double 0.000000e+00, align 8
@_ZL7WGS84_E = internal global double 0.000000e+00, align 8
@_ZN11GCS_MAVLINK28last_radio_status_remrssi_msE = global i32 0, align 4
@_ZN11GCS_MAVLINK14mavlink_activeE = global i8 0, align 1
@_ZN11GCS_MAVLINK17chan_is_streamingE = global i8 0, align 1
@_ZN11GCS_MAVLINK28reserve_param_space_start_msE = global i32 0, align 4
@_ZN3GCS10_singletonE = global %class.GCS* null, align 8
@_ZTV11GCS_MAVLINK = unnamed_addr constant [41 x i8*] [i8* null, i8* bitcast ({ i8*, i8* }* @_ZTI11GCS_MAVLINK to i8*), i8* bitcast (void (%class.GCS_MAVLINK*, %struct.__mavlink_status*, %struct.__mavlink_message*)* @_ZN11GCS_MAVLINK14packetReceivedERK16__mavlink_statusR17__mavlink_message to i8*), i8* bitcast (void ()* @__cxa_pure_virtual to i8*), i8* bitcast (void (%class.GCS_MAVLINK*)* @_ZN11GCS_MAVLINK21send_scaled_pressure3Ev to i8*), i8* bitcast (void (%class.GCS_MAVLINK*)* @_ZNK11GCS_MAVLINK13send_simstateEv to i8*), i8* bitcast (void (%class.GCS_MAVLINK*)* @_ZNK11GCS_MAVLINK13send_attitudeEv to i8*), i8* bitcast (void (%class.GCS_MAVLINK*)* @_ZN11GCS_MAVLINK31send_position_target_global_intEv to i8*), i8* bitcast (i1 (%class.GCS_MAVLINK*)* @_ZNK11GCS_MAVLINK11in_hil_modeEv to i8*), i8* bitcast (i1 (%class.GCS_MAVLINK*, %struct.__mavlink_status*, %struct.__mavlink_message*)* @_ZN11GCS_MAVLINK13accept_packetERK16__mavlink_statusR17__mavlink_message to i8*), i8* bitcast (void ()* @__cxa_pure_virtual to i8*), i8* bitcast (void ()* @__cxa_pure_virtual to i8*), i8* bitcast (void ()* @__cxa_pure_virtual to i8*), i8* bitcast (void ()* @__cxa_pure_virtual to i8*), i8* bitcast (%class.AP_AdvancedFailsafe* (%class.GCS_MAVLINK*)* @_ZNK11GCS_MAVLINK21get_advanced_failsafeEv to i8*), i8* bitcast (%class.AP_VisualOdom* (%class.GCS_MAVLINK*)* @_ZNK11GCS_MAVLINK15get_visual_odomEv to i8*), i8* bitcast (void ()* @__cxa_pure_virtual to i8*), i8* bitcast (void ()* @__cxa_pure_virtual to i8*), i8* bitcast (void ()* @__cxa_pure_virtual to i8*), i8* bitcast (void ()* @__cxa_pure_virtual to i8*), i8* bitcast (void ()* @__cxa_pure_virtual to i8*), i8* bitcast (i1 (%class.GCS_MAVLINK*)* @_ZNK11GCS_MAVLINK19persist_streamratesEv to i8*), i8* bitcast (void (%class.GCS_MAVLINK*, %struct.__mavlink_message*)* @_ZN11GCS_MAVLINK18handle_command_ackEPK17__mavlink_message to i8*), i8* bitcast (void (%class.GCS_MAVLINK*, %class.AP_Mission*, %struct.__mavlink_message*)* @_ZN11GCS_MAVLINK26handle_mission_set_currentER10AP_MissionP17__mavlink_message to i8*), i8* bitcast (i1 (%class.GCS_MAVLINK*)* @_ZNK11GCS_MAVLINK12params_readyEv to i8*), i8* bitcast (i32 (%class.GCS_MAVLINK*, %struct.__mavlink_command_long_t*)* @_ZN11GCS_MAVLINK25handle_flight_terminationERK24__mavlink_command_long_t to i8*), i8* bitcast (void (%class.GCS_MAVLINK*)* @_ZN11GCS_MAVLINK11send_bannerEv to i8*), i8* bitcast (void ()* @__cxa_pure_virtual to i8*), i8* bitcast (i32 (%class.GCS_MAVLINK*, %struct.__mavlink_command_long_t*)* @_ZN11GCS_MAVLINK36handle_command_preflight_calibrationERK24__mavlink_command_long_t to i8*), i8* bitcast (i32 (%class.GCS_MAVLINK*, %struct.__mavlink_command_long_t*)* @_ZN11GCS_MAVLINK37_handle_command_preflight_calibrationERK24__mavlink_command_long_t to i8*), i8* bitcast (i32 (%class.GCS_MAVLINK*)* @_ZN11GCS_MAVLINK42_handle_command_preflight_calibration_baroEv to i8*), i8* bitcast (i1 (%class.GCS_MAVLINK*, i8)* @_ZN11GCS_MAVLINK16try_send_messageE10ap_message to i8*), i8* bitcast (i32 (%class.GCS_MAVLINK*)* @_ZNK11GCS_MAVLINK23global_position_int_altEv to i8*), i8* bitcast (i32 (%class.GCS_MAVLINK*)* @_ZNK11GCS_MAVLINK32global_position_int_relative_altEv to i8*), i8* bitcast (float (%class.GCS_MAVLINK*)* @_ZNK11GCS_MAVLINK17vfr_hud_climbrateEv to i8*), i8* bitcast (float (%class.GCS_MAVLINK*)* @_ZNK11GCS_MAVLINK16vfr_hud_airspeedEv to i8*), i8* bitcast (i16 (%class.GCS_MAVLINK*)* @_ZNK11GCS_MAVLINK16vfr_hud_throttleEv to i8*), i8* bitcast (float (%class.GCS_MAVLINK*)* @_ZNK11GCS_MAVLINK11vfr_hud_altEv to i8*), i8* bitcast (void ()* @__cxa_pure_virtual to i8*), i8* bitcast (void ()* @__cxa_pure_virtual to i8*), i8* bitcast (void ()* @__cxa_pure_virtual to i8*)], align 8
@_ZN11GCS_MAVLINK8var_infoE = external global [0 x %"struct.AP_Param::GroupInfo"], align 8
@mavlink_comm_port = external global [6 x %"class.AP_HAL::UARTDriver"*], align 16
@.str = private unnamed_addr constant [14 x i8] c"GCS_Packet_%u\00", align 1
@hal = external constant %"class.AP_HAL::HAL"*, align 8
@.str.2 = private unnamed_addr constant [14 x i8] c"GCS_Update_%u\00", align 1
@_ZN11GCS_MAVLINK15serialmanager_pE = external global %class.AP_SerialManager*, align 8
@.str.3 = private unnamed_addr constant [28 x i8] c"Flight plan update rejected\00", align 1
@_ZZN11GCS_MAVLINK19handle_mission_itemEP17__mavlink_messageR10AP_MissionE3cmd = private unnamed_addr constant { i16, i16, i16, { %"struct.AP_Mission::Jump_Command", [8 x i8] } } { i16 0, i16 0, i16 0, { %"struct.AP_Mission::Jump_Command", [8 x i8] } { %"struct.AP_Mission::Jump_Command" zeroinitializer, [8 x i8] undef } }, align 2
@.str.4 = private unnamed_addr constant [21 x i8] c"Flight plan received\00", align 1
@_ZN11GCS_MAVLINK7routingE = external global %class.MAVLink_routing, align 4
@gcs_alternative_active = external global [6 x i8], align 1
@_ZZN11GCS_MAVLINK19send_sensor_offsetsEvE7counter = internal global i8 0, align 1
@_ZZNK11GCS_MAVLINK9send_homeEvE1q = internal constant [4 x float] [float 1.000000e+00, float 0.000000e+00, float 0.000000e+00, float 0.000000e+00], align 16
@.str.5 = private unnamed_addr constant [12 x i8] c"GCS request\00", align 1
@mavlink_system = external global %struct.__mavlink_system, align 1
@.str.6 = private unnamed_addr constant [5 x i8] c"TSYN\00", align 1
@.str.7 = private unnamed_addr constant [17 x i8] c"TimeUS,SysID,RTT\00", align 1
@.str.8 = private unnamed_addr constant [4 x i8] c"s-s\00", align 1
@.str.9 = private unnamed_addr constant [4 x i8] c"F-F\00", align 1
@.str.10 = private unnamed_addr constant [4 x i8] c"QBQ\00", align 1
@.str.11 = private unnamed_addr constant [11 x i8] c"SRC=%u/%u:\00", align 1
@.str.12 = private unnamed_addr constant [5 x i8] c"VISP\00", align 1
@.str.13 = private unnamed_addr constant [41 x i8] c"TimeUS,RemTimeUS,PX,PY,PZ,Roll,Pitch,Yaw\00", align 1
@.str.14 = private unnamed_addr constant [9 x i8] c"ssmmmrrr\00", align 1
@.str.15 = private unnamed_addr constant [9 x i8] c"FF000000\00", align 1
@.str.16 = private unnamed_addr constant [9 x i8] c"QQffffff\00", align 1
@.str.17 = private unnamed_addr constant [14 x i8] c"%s: %s %s: %s\00", align 1
@.str.18 = private unnamed_addr constant [7 x i8] c"%s: %s\00", align 1
@.str.19 = private unnamed_addr constant [14 x i8] c"Magic not set\00", align 1
@.str.20 = private unnamed_addr constant [31 x i8] c"Updating barometer calibration\00", align 1
@.str.21 = private unnamed_addr constant [31 x i8] c"Barometer calibration complete\00", align 1
@.str.22 = private unnamed_addr constant [17 x i8] c"Gripper Released\00", align 1
@.str.23 = private unnamed_addr constant [16 x i8] c"Gripper Grabbed\00", align 1
@.str.24 = private unnamed_addr constant [35 x i8] c"All parameters reset, reboot board\00", align 1
@.str.25 = private unnamed_addr constant [29 x i8] c"Sending unknown message (%u)\00", align 1
@.str.26 = private unnamed_addr constant [30 x i8] c"Sending unknown ap_message %u\00", align 1
@_ZN11GCS_MAVLINK18all_stream_entriesE = external global [0 x %"struct.GCS_MAVLINK::stream_entries"], align 8
@.str.27 = private unnamed_addr constant [23 x i8] c"link_offset_usec=%lld\0A\00", align 1
@.str.28 = private unnamed_addr constant [22 x i8] c"msg from future %lld\0A\00", align 1
@.str.29 = private unnamed_addr constant [34 x i8] c"offboard timestammp too old %lld\0A\00", align 1
@.str.30 = private unnamed_addr constant [27 x i8] c"new link_offset_usec=%lld\0A\00", align 1
@_ZTV3GCS = unnamed_addr constant [7 x i8*] [i8* null, i8* bitcast ({ i8*, i8* }* @_ZTI3GCS to i8*), i8* bitcast (void (%class.GCS*, i32, i8, i8*)* @_ZN3GCS15send_statustextE12MAV_SEVERITYhPKc to i8*), i8* bitcast (void ()* @__cxa_pure_virtual to i8*), i8* bitcast (void ()* @__cxa_pure_virtual to i8*), i8* bitcast (void ()* @__cxa_pure_virtual to i8*), i8* bitcast (void (%class.GCS*, %class.AP_SerialManager*)* @_ZN3GCS11setup_uartsER16AP_SerialManager to i8*)], align 8
@_ZTVN10__cxxabiv117__class_type_infoE = external global i8*
@_ZTS3GCS = constant [5 x i8] c"3GCS\00"
@_ZTI3GCS = constant { i8*, i8* } { i8* bitcast (i8** getelementptr inbounds (i8*, i8** @_ZTVN10__cxxabiv117__class_type_infoE, i64 2) to i8*), i8* getelementptr inbounds ([5 x i8], [5 x i8]* @_ZTS3GCS, i32 0, i32 0) }
@_ZTS11GCS_MAVLINK = constant [14 x i8] c"11GCS_MAVLINK\00"
@_ZTI11GCS_MAVLINK = constant { i8*, i8* } { i8* bitcast (i8** getelementptr inbounds (i8*, i8** @_ZTVN10__cxxabiv117__class_type_infoE, i64 2) to i8*), i8* getelementptr inbounds ([14 x i8], [14 x i8]* @_ZTS11GCS_MAVLINK, i32 0, i32 0) }
@_ZN11RangeFinder10_singletonE = external global %class.RangeFinder*, align 8
@_ZN12AP_Proximity10_singletonE = external global %class.AP_Proximity*, align 8
@_ZN11AP_Airspeed10_singletonE = external global %class.AP_Airspeed*, align 8
@_ZN9AP_Notify9_instanceE = external global %class.AP_Notify*, align 8
@_ZN12SRV_Channels8channelsE = external global %class.SRV_Channel*, align 8
@_ZN15DataFlash_Class9_instanceE = external global %class.DataFlash_Class*, align 8
@llvm.global_ctors = appending global [1 x { i32, void ()*, i8* }] [{ i32, void ()*, i8* } { i32 65535, void ()* @_GLOBAL__sub_I_GCS_Common.cpp, i8* null }]

; Function Attrs: nounwind uwtable
define internal void @__cxx_global_var_init() #0 section ".text.startup" !dbg !6022 {
entry:
  %call = call double @asin(double 1.000000e+00) #6, !dbg !6023
  %div = fdiv double %call, 9.000000e+01, !dbg !6024
  store double %div, double* @_ZL17DEG_TO_RAD_DOUBLE, align 8, !dbg !6024
  ret void, !dbg !6025
}

; Function Attrs: nounwind
declare double @asin(double) #1

; Function Attrs: nounwind uwtable
define internal void @__cxx_global_var_init.1() #0 section ".text.startup" !dbg !6026 {
entry:
  %call = call double @sqrt(double 0x3F7B6B90F1FE94F0) #6, !dbg !6027
  store double %call, double* @_ZL7WGS84_E, align 8, !dbg !6028
  ret void, !dbg !6029
}

; Function Attrs: nounwind
declare double @sqrt(double) #1

; Function Attrs: nounwind uwtable
define void @_ZN11GCS_MAVLINKC2Ev(%class.GCS_MAVLINK* %this) unnamed_addr #0 align 2 !dbg !6030 {
entry:
  %this.addr = alloca %class.GCS_MAVLINK*, align 8
  store %class.GCS_MAVLINK* %this, %class.GCS_MAVLINK** %this.addr, align 8
  call void @llvm.dbg.declare(metadata %class.GCS_MAVLINK** %this.addr, metadata !6031, metadata !6032), !dbg !6033
  %this1 = load %class.GCS_MAVLINK*, %class.GCS_MAVLINK** %this.addr, align 8
  %0 = bitcast %class.GCS_MAVLINK* %this1 to i32 (...)***, !dbg !6034
  store i32 (...)** bitcast (i8** getelementptr inbounds ([41 x i8*], [41 x i8*]* @_ZTV11GCS_MAVLINK, i32 0, i32 2) to i32 (...)**), i32 (...)*** %0, align 8, !dbg !6034
  %mission_item_reached_index = getelementptr inbounds %class.GCS_MAVLINK, %class.GCS_MAVLINK* %this1, i32 0, i32 4, !dbg !6035
  store i16 -1, i16* %mission_item_reached_index, align 8, !dbg !6035
  %streamRates = getelementptr inbounds %class.GCS_MAVLINK, %class.GCS_MAVLINK* %this1, i32 0, i32 11, !dbg !6037
  %array.begin = getelementptr inbounds [10 x %class.AP_ParamT.4], [10 x %class.AP_ParamT.4]* %streamRates, i32 0, i32 0, !dbg !6037
  %arrayctor.end = getelementptr inbounds %class.AP_ParamT.4, %class.AP_ParamT.4* %array.begin, i64 10, !dbg !6037
  br label %arrayctor.loop, !dbg !6037

arrayctor.loop:                                   ; preds = %arrayctor.loop, %entry
  %arrayctor.cur = phi %class.AP_ParamT.4* [ %array.begin, %entry ], [ %arrayctor.next, %arrayctor.loop ], !dbg !6039
  call void @_ZN9AP_ParamTIsL11ap_var_type2EEC2Ev(%class.AP_ParamT.4* %arrayctor.cur), !dbg !6039
  %arrayctor.next = getelementptr inbounds %class.AP_ParamT.4, %class.AP_ParamT.4* %arrayctor.cur, i64 1, !dbg !6039
  %arrayctor.done = icmp eq %class.AP_ParamT.4* %arrayctor.next, %arrayctor.end, !dbg !6039
  br i1 %arrayctor.done, label %arrayctor.cont, label %arrayctor.loop, !dbg !6039

arrayctor.cont:                                   ; preds = %arrayctor.loop
  %_timesync_request = getelementptr inbounds %class.GCS_MAVLINK, %class.GCS_MAVLINK* %this1, i32 0, i32 12, !dbg !6041
  call void @_ZN11GCS_MAVLINKUt_C2Ev(%struct.anon.8* %_timesync_request) #6, !dbg !6041
  %vfr_hud_velned = getelementptr inbounds %class.GCS_MAVLINK, %class.GCS_MAVLINK* %this1, i32 0, i32 13, !dbg !6041
  call void @_ZN7Vector3IfEC2Ev(%class.Vector3* %vfr_hud_velned), !dbg !6043
  %_queued_parameter_token = getelementptr inbounds %class.GCS_MAVLINK, %class.GCS_MAVLINK* %this1, i32 0, i32 17, !dbg !6041
  %waypoint_receive_timeout = getelementptr inbounds %class.GCS_MAVLINK, %class.GCS_MAVLINK* %this1, i32 0, i32 27, !dbg !6045
  store i16 8000, i16* %waypoint_receive_timeout, align 8, !dbg !6045
  %signing = getelementptr inbounds %class.GCS_MAVLINK, %class.GCS_MAVLINK* %this1, i32 0, i32 39, !dbg !6041
  %alternative = getelementptr inbounds %class.GCS_MAVLINK, %class.GCS_MAVLINK* %this1, i32 0, i32 40, !dbg !6041
  call void @_ZN11GCS_MAVLINKUt0_C2Ev(%struct.anon.10* %alternative), !dbg !6046
  %lag_correction = getelementptr inbounds %class.GCS_MAVLINK, %class.GCS_MAVLINK* %this1, i32 0, i32 41, !dbg !6041
  %global_position_current_loc = getelementptr inbounds %class.GCS_MAVLINK, %class.GCS_MAVLINK* %this1, i32 0, i32 42, !dbg !6041
  %1 = bitcast %class.GCS_MAVLINK* %this1 to i8*, !dbg !6048
  call void @_ZN8AP_Param21setup_object_defaultsEPKvPKNS_9GroupInfoE(i8* %1, %"struct.AP_Param::GroupInfo"* getelementptr inbounds ([0 x %"struct.AP_Param::GroupInfo"], [0 x %"struct.AP_Param::GroupInfo"]* @_ZN11GCS_MAVLINK8var_infoE, i32 0, i32 0)), !dbg !6050
  ret void, !dbg !6051
}

; Function Attrs: nounwind readnone
declare void @llvm.dbg.declare(metadata, metadata, metadata) #2

; Function Attrs: inlinehint nounwind uwtable
define linkonce_odr void @_ZN9AP_ParamTIsL11ap_var_type2EEC2Ev(%class.AP_ParamT.4* %this) unnamed_addr #3 comdat align 2 !dbg !6052 {
entry:
  %this.addr = alloca %class.AP_ParamT.4*, align 8
  store %class.AP_ParamT.4* %this, %class.AP_ParamT.4** %this.addr, align 8
  call void @llvm.dbg.declare(metadata %class.AP_ParamT.4** %this.addr, metadata !6056, metadata !6032), !dbg !6058
  %this1 = load %class.AP_ParamT.4*, %class.AP_ParamT.4** %this.addr, align 8
  %0 = bitcast %class.AP_ParamT.4* %this1 to %class.AP_Param*, !dbg !6059
  call void @_ZN8AP_ParamC2Ev(%class.AP_Param* %0), !dbg !6059
  ret void, !dbg !6059
}

; Function Attrs: inlinehint nounwind uwtable
define linkonce_odr void @_ZN11GCS_MAVLINKUt_C2Ev(%struct.anon.8* %this) unnamed_addr #3 comdat align 2 !dbg !6060 {
entry:
  %this.addr = alloca %struct.anon.8*, align 8
  store %struct.anon.8* %this, %struct.anon.8** %this.addr, align 8
  call void @llvm.dbg.declare(metadata %struct.anon.8** %this.addr, metadata !6065, metadata !6032), !dbg !6067
  %this1 = load %struct.anon.8*, %struct.anon.8** %this.addr, align 8
  %interval_ms = getelementptr inbounds %struct.anon.8, %struct.anon.8* %this1, i32 0, i32 2, !dbg !6068
  store i16 10000, i16* %interval_ms, align 4, !dbg !6068
  ret void, !dbg !6069
}

; Function Attrs: nounwind uwtable
define linkonce_odr void @_ZN7Vector3IfEC2Ev(%class.Vector3* %this) unnamed_addr #0 comdat align 2 !dbg !6070 {
entry:
  %this.addr = alloca %class.Vector3*, align 8
  store %class.Vector3* %this, %class.Vector3** %this.addr, align 8
  call void @llvm.dbg.declare(metadata %class.Vector3** %this.addr, metadata !6071, metadata !6032), !dbg !6073
  %this1 = load %class.Vector3*, %class.Vector3** %this.addr, align 8
  %x = getelementptr inbounds %class.Vector3, %class.Vector3* %this1, i32 0, i32 0, !dbg !6074
  store float 0.000000e+00, float* %x, align 4, !dbg !6074
  %y = getelementptr inbounds %class.Vector3, %class.Vector3* %this1, i32 0, i32 1, !dbg !6075
  store float 0.000000e+00, float* %y, align 4, !dbg !6075
  %z = getelementptr inbounds %class.Vector3, %class.Vector3* %this1, i32 0, i32 2, !dbg !6076
  store float 0.000000e+00, float* %z, align 4, !dbg !6076
  ret void, !dbg !6077
}

; Function Attrs: inlinehint nounwind uwtable
define linkonce_odr void @_ZN11GCS_MAVLINKUt0_C2Ev(%struct.anon.10* %this) unnamed_addr #3 comdat align 2 !dbg !6078 {
entry:
  %this.addr = alloca %struct.anon.10*, align 8
  store %struct.anon.10* %this, %struct.anon.10** %this.addr, align 8
  call void @llvm.dbg.declare(metadata %struct.anon.10** %this.addr, metadata !6083, metadata !6032), !dbg !6085
  %this1 = load %struct.anon.10*, %struct.anon.10** %this.addr, align 8
  %handler = getelementptr inbounds %struct.anon.10, %struct.anon.10* %this1, i32 0, i32 0, !dbg !6086
  call void @_ZN7FunctorIbJhPN6AP_HAL10UARTDriverEEEC2Ev(%class.Functor.11* %handler), !dbg !6086
  ret void, !dbg !6086
}

declare void @_ZN8AP_Param21setup_object_defaultsEPKvPKNS_9GroupInfoE(i8*, %"struct.AP_Param::GroupInfo"*) #4

; Function Attrs: nounwind uwtable
define void @_ZN11GCS_MAVLINK4initEPN6AP_HAL10UARTDriverE17mavlink_channel_t(%class.GCS_MAVLINK* %this, %"class.AP_HAL::UARTDriver"* %port, i32 %mav_chan) #0 align 2 !dbg !6087 {
entry:
  %this.addr = alloca %class.GCS_MAVLINK*, align 8
  %port.addr = alloca %"class.AP_HAL::UARTDriver"*, align 8
  %mav_chan.addr = alloca i32, align 4
  store %class.GCS_MAVLINK* %this, %class.GCS_MAVLINK** %this.addr, align 8
  call void @llvm.dbg.declare(metadata %class.GCS_MAVLINK** %this.addr, metadata !6088, metadata !6032), !dbg !6089
  store %"class.AP_HAL::UARTDriver"* %port, %"class.AP_HAL::UARTDriver"** %port.addr, align 8
  call void @llvm.dbg.declare(metadata %"class.AP_HAL::UARTDriver"** %port.addr, metadata !6090, metadata !6032), !dbg !6091
  store i32 %mav_chan, i32* %mav_chan.addr, align 4
  call void @llvm.dbg.declare(metadata i32* %mav_chan.addr, metadata !6092, metadata !6032), !dbg !6093
  %this1 = load %class.GCS_MAVLINK*, %class.GCS_MAVLINK** %this.addr, align 8
  %0 = load i32, i32* %mav_chan.addr, align 4, !dbg !6094
  %call = call zeroext i1 @_ZL13valid_channel17mavlink_channel_t(i32 %0), !dbg !6096
  br i1 %call, label %if.end, label %if.then, !dbg !6097

if.then:                                          ; preds = %entry
  br label %return, !dbg !6098

if.end:                                           ; preds = %entry
  %1 = load %"class.AP_HAL::UARTDriver"*, %"class.AP_HAL::UARTDriver"** %port.addr, align 8, !dbg !6100
  %_port = getelementptr inbounds %class.GCS_MAVLINK, %class.GCS_MAVLINK* %this1, i32 0, i32 15, !dbg !6101
  store %"class.AP_HAL::UARTDriver"* %1, %"class.AP_HAL::UARTDriver"** %_port, align 8, !dbg !6102
  %2 = load i32, i32* %mav_chan.addr, align 4, !dbg !6103
  %chan = getelementptr inbounds %class.GCS_MAVLINK, %class.GCS_MAVLINK* %this1, i32 0, i32 10, !dbg !6104
  store i32 %2, i32* %chan, align 8, !dbg !6105
  %_port2 = getelementptr inbounds %class.GCS_MAVLINK, %class.GCS_MAVLINK* %this1, i32 0, i32 15, !dbg !6106
  %3 = load %"class.AP_HAL::UARTDriver"*, %"class.AP_HAL::UARTDriver"** %_port2, align 8, !dbg !6106
  %chan3 = getelementptr inbounds %class.GCS_MAVLINK, %class.GCS_MAVLINK* %this1, i32 0, i32 10, !dbg !6107
  %4 = load i32, i32* %chan3, align 8, !dbg !6107
  %idxprom = zext i32 %4 to i64, !dbg !6108
  %arrayidx = getelementptr inbounds [6 x %"class.AP_HAL::UARTDriver"*], [6 x %"class.AP_HAL::UARTDriver"*]* @mavlink_comm_port, i64 0, i64 %idxprom, !dbg !6108
  store %"class.AP_HAL::UARTDriver"* %3, %"class.AP_HAL::UARTDriver"** %arrayidx, align 8, !dbg !6109
  %_queued_parameter = getelementptr inbounds %class.GCS_MAVLINK, %class.GCS_MAVLINK* %this1, i32 0, i32 9, !dbg !6110
  store %class.AP_Param* null, %class.AP_Param** %_queued_parameter, align 8, !dbg !6111
  %_perf_packet_name = getelementptr inbounds %class.GCS_MAVLINK, %class.GCS_MAVLINK* %this1, i32 0, i32 33, !dbg !6112
  %arraydecay = getelementptr inbounds [16 x i8], [16 x i8]* %_perf_packet_name, i32 0, i32 0, !dbg !6112
  %chan4 = getelementptr inbounds %class.GCS_MAVLINK, %class.GCS_MAVLINK* %this1, i32 0, i32 10, !dbg !6113
  %5 = load i32, i32* %chan4, align 8, !dbg !6113
  %call5 = call i32 (i8*, i64, i8*, ...) @snprintf(i8* %arraydecay, i64 16, i8* getelementptr inbounds ([14 x i8], [14 x i8]* @.str, i32 0, i32 0), i32 %5) #6, !dbg !6114
  %6 = load %"class.AP_HAL::HAL"*, %"class.AP_HAL::HAL"** @hal, align 8, !dbg !6115
  %util = getelementptr inbounds %"class.AP_HAL::HAL", %"class.AP_HAL::HAL"* %6, i32 0, i32 17, !dbg !6116
  %7 = load %"class.AP_HAL::Util"*, %"class.AP_HAL::Util"** %util, align 8, !dbg !6116
  %8 = bitcast %"class.AP_HAL::Util"* %7 to i8* (%"class.AP_HAL::Util"*, i32, i8*)***, !dbg !6117
  %vtable = load i8* (%"class.AP_HAL::Util"*, i32, i8*)**, i8* (%"class.AP_HAL::Util"*, i32, i8*)*** %8, align 8, !dbg !6117
  %vfn = getelementptr inbounds i8* (%"class.AP_HAL::Util"*, i32, i8*)*, i8* (%"class.AP_HAL::Util"*, i32, i8*)** %vtable, i64 16, !dbg !6117
  %9 = load i8* (%"class.AP_HAL::Util"*, i32, i8*)*, i8* (%"class.AP_HAL::Util"*, i32, i8*)** %vfn, align 8, !dbg !6117
  %_perf_packet_name6 = getelementptr inbounds %class.GCS_MAVLINK, %class.GCS_MAVLINK* %this1, i32 0, i32 33, !dbg !6118
  %arraydecay7 = getelementptr inbounds [16 x i8], [16 x i8]* %_perf_packet_name6, i32 0, i32 0, !dbg !6118
  %call8 = call i8* %9(%"class.AP_HAL::Util"* %7, i32 1, i8* %arraydecay7), !dbg !6117
  %_perf_packet = getelementptr inbounds %class.GCS_MAVLINK, %class.GCS_MAVLINK* %this1, i32 0, i32 31, !dbg !6119
  store i8* %call8, i8** %_perf_packet, align 8, !dbg !6120
  %_perf_update_name = getelementptr inbounds %class.GCS_MAVLINK, %class.GCS_MAVLINK* %this1, i32 0, i32 34, !dbg !6121
  %arraydecay9 = getelementptr inbounds [16 x i8], [16 x i8]* %_perf_update_name, i32 0, i32 0, !dbg !6121
  %chan10 = getelementptr inbounds %class.GCS_MAVLINK, %class.GCS_MAVLINK* %this1, i32 0, i32 10, !dbg !6122
  %10 = load i32, i32* %chan10, align 8, !dbg !6122
  %call11 = call i32 (i8*, i64, i8*, ...) @snprintf(i8* %arraydecay9, i64 16, i8* getelementptr inbounds ([14 x i8], [14 x i8]* @.str.2, i32 0, i32 0), i32 %10) #6, !dbg !6123
  %11 = load %"class.AP_HAL::HAL"*, %"class.AP_HAL::HAL"** @hal, align 8, !dbg !6124
  %util12 = getelementptr inbounds %"class.AP_HAL::HAL", %"class.AP_HAL::HAL"* %11, i32 0, i32 17, !dbg !6125
  %12 = load %"class.AP_HAL::Util"*, %"class.AP_HAL::Util"** %util12, align 8, !dbg !6125
  %13 = bitcast %"class.AP_HAL::Util"* %12 to i8* (%"class.AP_HAL::Util"*, i32, i8*)***, !dbg !6126
  %vtable13 = load i8* (%"class.AP_HAL::Util"*, i32, i8*)**, i8* (%"class.AP_HAL::Util"*, i32, i8*)*** %13, align 8, !dbg !6126
  %vfn14 = getelementptr inbounds i8* (%"class.AP_HAL::Util"*, i32, i8*)*, i8* (%"class.AP_HAL::Util"*, i32, i8*)** %vtable13, i64 16, !dbg !6126
  %14 = load i8* (%"class.AP_HAL::Util"*, i32, i8*)*, i8* (%"class.AP_HAL::Util"*, i32, i8*)** %vfn14, align 8, !dbg !6126
  %_perf_update_name15 = getelementptr inbounds %class.GCS_MAVLINK, %class.GCS_MAVLINK* %this1, i32 0, i32 34, !dbg !6127
  %arraydecay16 = getelementptr inbounds [16 x i8], [16 x i8]* %_perf_update_name15, i32 0, i32 0, !dbg !6127
  %call17 = call i8* %14(%"class.AP_HAL::Util"* %12, i32 1, i8* %arraydecay16), !dbg !6126
  %_perf_update = getelementptr inbounds %class.GCS_MAVLINK, %class.GCS_MAVLINK* %this1, i32 0, i32 32, !dbg !6128
  store i8* %call17, i8** %_perf_update, align 8, !dbg !6129
  %initialised = getelementptr inbounds %class.GCS_MAVLINK, %class.GCS_MAVLINK* %this1, i32 0, i32 1, !dbg !6130
  store i8 1, i8* %initialised, align 8, !dbg !6131
  br label %return, !dbg !6132

return:                                           ; preds = %if.end, %if.then
  ret void, !dbg !6133
}

; Function Attrs: inlinehint nounwind uwtable
define internal zeroext i1 @_ZL13valid_channel17mavlink_channel_t(i32 %chan) #3 !dbg !6135 {
entry:
  %chan.addr = alloca i32, align 4
  store i32 %chan, i32* %chan.addr, align 4
  call void @llvm.dbg.declare(metadata i32* %chan.addr, metadata !6139, metadata !6032), !dbg !6140
  %0 = load i32, i32* %chan.addr, align 4, !dbg !6141
  %cmp = icmp slt i32 %0, 6, !dbg !6142
  ret i1 %cmp, !dbg !6143
}

; Function Attrs: nounwind
declare i32 @snprintf(i8*, i64, i8*, ...) #1

; Function Attrs: nounwind uwtable
define void @_ZN11GCS_MAVLINK10setup_uartERK16AP_SerialManagerNS0_14SerialProtocolEh(%class.GCS_MAVLINK* %this, %class.AP_SerialManager* dereferenceable(112) %serial_manager, i32 %protocol, i8 zeroext %instance) #0 align 2 !dbg !6144 {
entry:
  %this.addr = alloca %class.GCS_MAVLINK*, align 8
  %serial_manager.addr = alloca %class.AP_SerialManager*, align 8
  %protocol.addr = alloca i32, align 4
  %instance.addr = alloca i8, align 1
  %uart = alloca %"class.AP_HAL::UARTDriver"*, align 8
  %mav_chan = alloca i32, align 4
  %old_flow_control = alloca i32, align 4
  %i = alloca i8, align 1
  %mavlink_protocol = alloca i32, align 4
  %status = alloca %struct.__mavlink_status*, align 8
  store %class.GCS_MAVLINK* %this, %class.GCS_MAVLINK** %this.addr, align 8
  call void @llvm.dbg.declare(metadata %class.GCS_MAVLINK** %this.addr, metadata !6145, metadata !6032), !dbg !6146
  store %class.AP_SerialManager* %serial_manager, %class.AP_SerialManager** %serial_manager.addr, align 8
  call void @llvm.dbg.declare(metadata %class.AP_SerialManager** %serial_manager.addr, metadata !6147, metadata !6032), !dbg !6148
  store i32 %protocol, i32* %protocol.addr, align 4
  call void @llvm.dbg.declare(metadata i32* %protocol.addr, metadata !6149, metadata !6032), !dbg !6150
  store i8 %instance, i8* %instance.addr, align 1
  call void @llvm.dbg.declare(metadata i8* %instance.addr, metadata !6151, metadata !6032), !dbg !6152
  %this1 = load %class.GCS_MAVLINK*, %class.GCS_MAVLINK** %this.addr, align 8
  %0 = load %class.AP_SerialManager*, %class.AP_SerialManager** %serial_manager.addr, align 8, !dbg !6153
  store %class.AP_SerialManager* %0, %class.AP_SerialManager** @_ZN11GCS_MAVLINK15serialmanager_pE, align 8, !dbg !6154
  call void @llvm.dbg.declare(metadata %"class.AP_HAL::UARTDriver"** %uart, metadata !6155, metadata !6032), !dbg !6156
  %1 = load %class.AP_SerialManager*, %class.AP_SerialManager** %serial_manager.addr, align 8, !dbg !6157
  %2 = load i32, i32* %protocol.addr, align 4, !dbg !6158
  %3 = load i8, i8* %instance.addr, align 1, !dbg !6159
  %call = call %"class.AP_HAL::UARTDriver"* @_ZNK16AP_SerialManager11find_serialENS_14SerialProtocolEh(%class.AP_SerialManager* %1, i32 %2, i8 zeroext %3), !dbg !6160
  store %"class.AP_HAL::UARTDriver"* %call, %"class.AP_HAL::UARTDriver"** %uart, align 8, !dbg !6161
  %4 = load %"class.AP_HAL::UARTDriver"*, %"class.AP_HAL::UARTDriver"** %uart, align 8, !dbg !6162
  %cmp = icmp eq %"class.AP_HAL::UARTDriver"* %4, null, !dbg !6164
  br i1 %cmp, label %if.then, label %if.end, !dbg !6165

if.then:                                          ; preds = %entry
  br label %if.end54, !dbg !6166

if.end:                                           ; preds = %entry
  call void @llvm.dbg.declare(metadata i32* %mav_chan, metadata !6168, metadata !6032), !dbg !6169
  %5 = load %class.AP_SerialManager*, %class.AP_SerialManager** %serial_manager.addr, align 8, !dbg !6170
  %6 = load i32, i32* %protocol.addr, align 4, !dbg !6172
  %7 = load i8, i8* %instance.addr, align 1, !dbg !6173
  %call2 = call zeroext i1 @_ZNK16AP_SerialManager19get_mavlink_channelENS_14SerialProtocolEhR17mavlink_channel_t(%class.AP_SerialManager* %5, i32 %6, i8 zeroext %7, i32* dereferenceable(4) %mav_chan), !dbg !6174
  br i1 %call2, label %if.end4, label %if.then3, !dbg !6175

if.then3:                                         ; preds = %if.end
  br label %if.end54, !dbg !6176

if.end4:                                          ; preds = %if.end
  %8 = load %"class.AP_HAL::UARTDriver"*, %"class.AP_HAL::UARTDriver"** %uart, align 8, !dbg !6178
  %9 = bitcast %"class.AP_HAL::UARTDriver"* %8 to void (%"class.AP_HAL::UARTDriver"*, i32)***, !dbg !6179
  %vtable = load void (%"class.AP_HAL::UARTDriver"*, i32)**, void (%"class.AP_HAL::UARTDriver"*, i32)*** %9, align 8, !dbg !6179
  %vfn = getelementptr inbounds void (%"class.AP_HAL::UARTDriver"*, i32)*, void (%"class.AP_HAL::UARTDriver"*, i32)** %vtable, i64 7, !dbg !6179
  %10 = load void (%"class.AP_HAL::UARTDriver"*, i32)*, void (%"class.AP_HAL::UARTDriver"*, i32)** %vfn, align 8, !dbg !6179
  call void %10(%"class.AP_HAL::UARTDriver"* %8, i32 115200), !dbg !6179
  call void @llvm.dbg.declare(metadata i32* %old_flow_control, metadata !6180, metadata !6032), !dbg !6181
  %11 = load %"class.AP_HAL::UARTDriver"*, %"class.AP_HAL::UARTDriver"** %uart, align 8, !dbg !6182
  %12 = bitcast %"class.AP_HAL::UARTDriver"* %11 to i32 (%"class.AP_HAL::UARTDriver"*)***, !dbg !6183
  %vtable5 = load i32 (%"class.AP_HAL::UARTDriver"*)**, i32 (%"class.AP_HAL::UARTDriver"*)*** %12, align 8, !dbg !6183
  %vfn6 = getelementptr inbounds i32 (%"class.AP_HAL::UARTDriver"*)*, i32 (%"class.AP_HAL::UARTDriver"*)** %vtable5, i64 17, !dbg !6183
  %13 = load i32 (%"class.AP_HAL::UARTDriver"*)*, i32 (%"class.AP_HAL::UARTDriver"*)** %vfn6, align 8, !dbg !6183
  %call7 = call i32 %13(%"class.AP_HAL::UARTDriver"* %11), !dbg !6183
  store i32 %call7, i32* %old_flow_control, align 4, !dbg !6181
  %14 = load %"class.AP_HAL::UARTDriver"*, %"class.AP_HAL::UARTDriver"** %uart, align 8, !dbg !6184
  %15 = bitcast %"class.AP_HAL::UARTDriver"* %14 to void (%"class.AP_HAL::UARTDriver"*, i32)***, !dbg !6185
  %vtable8 = load void (%"class.AP_HAL::UARTDriver"*, i32)**, void (%"class.AP_HAL::UARTDriver"*, i32)*** %15, align 8, !dbg !6185
  %vfn9 = getelementptr inbounds void (%"class.AP_HAL::UARTDriver"*, i32)*, void (%"class.AP_HAL::UARTDriver"*, i32)** %vtable8, i64 16, !dbg !6185
  %16 = load void (%"class.AP_HAL::UARTDriver"*, i32)*, void (%"class.AP_HAL::UARTDriver"*, i32)** %vfn9, align 8, !dbg !6185
  call void %16(%"class.AP_HAL::UARTDriver"* %14, i32 0), !dbg !6185
  call void @llvm.dbg.declare(metadata i8* %i, metadata !6186, metadata !6032), !dbg !6188
  store i8 0, i8* %i, align 1, !dbg !6188
  br label %for.cond, !dbg !6189

for.cond:                                         ; preds = %for.inc, %if.end4
  %17 = load i8, i8* %i, align 1, !dbg !6190
  %conv = zext i8 %17 to i32, !dbg !6190
  %cmp10 = icmp slt i32 %conv, 3, !dbg !6193
  br i1 %cmp10, label %for.body, label %for.end, !dbg !6194

for.body:                                         ; preds = %for.cond
  %18 = load %"class.AP_HAL::HAL"*, %"class.AP_HAL::HAL"** @hal, align 8, !dbg !6195
  %scheduler = getelementptr inbounds %"class.AP_HAL::HAL", %"class.AP_HAL::HAL"* %18, i32 0, i32 16, !dbg !6197
  %19 = load %"class.AP_HAL::Scheduler"*, %"class.AP_HAL::Scheduler"** %scheduler, align 8, !dbg !6197
  %20 = bitcast %"class.AP_HAL::Scheduler"* %19 to void (%"class.AP_HAL::Scheduler"*, i16)***, !dbg !6198
  %vtable11 = load void (%"class.AP_HAL::Scheduler"*, i16)**, void (%"class.AP_HAL::Scheduler"*, i16)*** %20, align 8, !dbg !6198
  %vfn12 = getelementptr inbounds void (%"class.AP_HAL::Scheduler"*, i16)*, void (%"class.AP_HAL::Scheduler"*, i16)** %vtable11, i64 1, !dbg !6198
  %21 = load void (%"class.AP_HAL::Scheduler"*, i16)*, void (%"class.AP_HAL::Scheduler"*, i16)** %vfn12, align 8, !dbg !6198
  call void %21(%"class.AP_HAL::Scheduler"* %19, i16 zeroext 1), !dbg !6198
  %22 = load %"class.AP_HAL::UARTDriver"*, %"class.AP_HAL::UARTDriver"** %uart, align 8, !dbg !6199
  %23 = bitcast %"class.AP_HAL::UARTDriver"* %22 to %"class.AP_HAL::BetterStream"*, !dbg !6200
  %24 = bitcast %"class.AP_HAL::BetterStream"* %23 to i64 (%"class.AP_HAL::BetterStream"*, i8)***, !dbg !6200
  %vtable13 = load i64 (%"class.AP_HAL::BetterStream"*, i8)**, i64 (%"class.AP_HAL::BetterStream"*, i8)*** %24, align 8, !dbg !6200
  %vfn14 = getelementptr inbounds i64 (%"class.AP_HAL::BetterStream"*, i8)*, i64 (%"class.AP_HAL::BetterStream"*, i8)** %vtable13, i64 2, !dbg !6200
  %25 = load i64 (%"class.AP_HAL::BetterStream"*, i8)*, i64 (%"class.AP_HAL::BetterStream"*, i8)** %vfn14, align 8, !dbg !6200
  %call15 = call i64 %25(%"class.AP_HAL::BetterStream"* %23, i8 zeroext 48), !dbg !6200
  %26 = load %"class.AP_HAL::UARTDriver"*, %"class.AP_HAL::UARTDriver"** %uart, align 8, !dbg !6201
  %27 = bitcast %"class.AP_HAL::UARTDriver"* %26 to %"class.AP_HAL::BetterStream"*, !dbg !6202
  %28 = bitcast %"class.AP_HAL::BetterStream"* %27 to i64 (%"class.AP_HAL::BetterStream"*, i8)***, !dbg !6202
  %vtable16 = load i64 (%"class.AP_HAL::BetterStream"*, i8)**, i64 (%"class.AP_HAL::BetterStream"*, i8)*** %28, align 8, !dbg !6202
  %vfn17 = getelementptr inbounds i64 (%"class.AP_HAL::BetterStream"*, i8)*, i64 (%"class.AP_HAL::BetterStream"*, i8)** %vtable16, i64 2, !dbg !6202
  %29 = load i64 (%"class.AP_HAL::BetterStream"*, i8)*, i64 (%"class.AP_HAL::BetterStream"*, i8)** %vfn17, align 8, !dbg !6202
  %call18 = call i64 %29(%"class.AP_HAL::BetterStream"* %27, i8 zeroext 32), !dbg !6202
  br label %for.inc, !dbg !6203

for.inc:                                          ; preds = %for.body
  %30 = load i8, i8* %i, align 1, !dbg !6204
  %inc = add i8 %30, 1, !dbg !6204
  store i8 %inc, i8* %i, align 1, !dbg !6204
  br label %for.cond, !dbg !6206, !llvm.loop !6207

for.end:                                          ; preds = %for.cond
  %31 = load %"class.AP_HAL::HAL"*, %"class.AP_HAL::HAL"** @hal, align 8, !dbg !6209
  %scheduler19 = getelementptr inbounds %"class.AP_HAL::HAL", %"class.AP_HAL::HAL"* %31, i32 0, i32 16, !dbg !6210
  %32 = load %"class.AP_HAL::Scheduler"*, %"class.AP_HAL::Scheduler"** %scheduler19, align 8, !dbg !6210
  %33 = bitcast %"class.AP_HAL::Scheduler"* %32 to void (%"class.AP_HAL::Scheduler"*, i16)***, !dbg !6211
  %vtable20 = load void (%"class.AP_HAL::Scheduler"*, i16)**, void (%"class.AP_HAL::Scheduler"*, i16)*** %33, align 8, !dbg !6211
  %vfn21 = getelementptr inbounds void (%"class.AP_HAL::Scheduler"*, i16)*, void (%"class.AP_HAL::Scheduler"*, i16)** %vtable20, i64 1, !dbg !6211
  %34 = load void (%"class.AP_HAL::Scheduler"*, i16)*, void (%"class.AP_HAL::Scheduler"*, i16)** %vfn21, align 8, !dbg !6211
  call void %34(%"class.AP_HAL::Scheduler"* %32, i16 zeroext 1), !dbg !6211
  %35 = load %"class.AP_HAL::UARTDriver"*, %"class.AP_HAL::UARTDriver"** %uart, align 8, !dbg !6212
  %36 = bitcast %"class.AP_HAL::UARTDriver"* %35 to void (%"class.AP_HAL::UARTDriver"*, i32)***, !dbg !6213
  %vtable22 = load void (%"class.AP_HAL::UARTDriver"*, i32)**, void (%"class.AP_HAL::UARTDriver"*, i32)*** %36, align 8, !dbg !6213
  %vfn23 = getelementptr inbounds void (%"class.AP_HAL::UARTDriver"*, i32)*, void (%"class.AP_HAL::UARTDriver"*, i32)** %vtable22, i64 16, !dbg !6213
  %37 = load void (%"class.AP_HAL::UARTDriver"*, i32)*, void (%"class.AP_HAL::UARTDriver"*, i32)** %vfn23, align 8, !dbg !6213
  %38 = load i32, i32* %old_flow_control, align 4, !dbg !6214
  call void %37(%"class.AP_HAL::UARTDriver"* %35, i32 %38), !dbg !6213
  %39 = load %"class.AP_HAL::UARTDriver"*, %"class.AP_HAL::UARTDriver"** %uart, align 8, !dbg !6215
  %40 = bitcast %"class.AP_HAL::UARTDriver"* %39 to void (%"class.AP_HAL::UARTDriver"*, i32)***, !dbg !6216
  %vtable24 = load void (%"class.AP_HAL::UARTDriver"*, i32)**, void (%"class.AP_HAL::UARTDriver"*, i32)*** %40, align 8, !dbg !6216
  %vfn25 = getelementptr inbounds void (%"class.AP_HAL::UARTDriver"*, i32)*, void (%"class.AP_HAL::UARTDriver"*, i32)** %vtable24, i64 7, !dbg !6216
  %41 = load void (%"class.AP_HAL::UARTDriver"*, i32)*, void (%"class.AP_HAL::UARTDriver"*, i32)** %vfn25, align 8, !dbg !6216
  %42 = load %class.AP_SerialManager*, %class.AP_SerialManager** %serial_manager.addr, align 8, !dbg !6217
  %43 = load i32, i32* %protocol.addr, align 4, !dbg !6218
  %44 = load i8, i8* %instance.addr, align 1, !dbg !6219
  %call26 = call i32 @_ZNK16AP_SerialManager13find_baudrateENS_14SerialProtocolEh(%class.AP_SerialManager* %42, i32 %43, i8 zeroext %44), !dbg !6220
  call void %41(%"class.AP_HAL::UARTDriver"* %39, i32 %call26), !dbg !6221
  %45 = load %"class.AP_HAL::UARTDriver"*, %"class.AP_HAL::UARTDriver"** %uart, align 8, !dbg !6223
  %46 = load i32, i32* %mav_chan, align 4, !dbg !6224
  call void @_ZN11GCS_MAVLINK4initEPN6AP_HAL10UARTDriverE17mavlink_channel_t(%class.GCS_MAVLINK* %this1, %"class.AP_HAL::UARTDriver"* %45, i32 %46), !dbg !6225
  call void @llvm.dbg.declare(metadata i32* %mavlink_protocol, metadata !6226, metadata !6032), !dbg !6227
  %47 = load %class.AP_SerialManager*, %class.AP_SerialManager** @_ZN11GCS_MAVLINK15serialmanager_pE, align 8, !dbg !6228
  %48 = load i32, i32* %mav_chan, align 4, !dbg !6229
  %call27 = call i32 @_ZNK16AP_SerialManager20get_mavlink_protocolE17mavlink_channel_t(%class.AP_SerialManager* %47, i32 %48), !dbg !6230
  store i32 %call27, i32* %mavlink_protocol, align 4, !dbg !6227
  call void @llvm.dbg.declare(metadata %struct.__mavlink_status** %status, metadata !6231, metadata !6032), !dbg !6233
  %chan = getelementptr inbounds %class.GCS_MAVLINK, %class.GCS_MAVLINK* %this1, i32 0, i32 10, !dbg !6234
  %49 = load i32, i32* %chan, align 8, !dbg !6234
  %conv28 = trunc i32 %49 to i8, !dbg !6234
  %call29 = call %struct.__mavlink_status* @mavlink_get_channel_status(i8 zeroext %conv28), !dbg !6235
  store %struct.__mavlink_status* %call29, %struct.__mavlink_status** %status, align 8, !dbg !6233
  %50 = load %struct.__mavlink_status*, %struct.__mavlink_status** %status, align 8, !dbg !6236
  %cmp30 = icmp eq %struct.__mavlink_status* %50, null, !dbg !6238
  br i1 %cmp30, label %if.then31, label %if.end32, !dbg !6239

if.then31:                                        ; preds = %for.end
  br label %if.end54, !dbg !6240

if.end32:                                         ; preds = %for.end
  %51 = load i32, i32* %mavlink_protocol, align 4, !dbg !6242
  %cmp33 = icmp eq i32 %51, 2, !dbg !6244
  br i1 %cmp33, label %if.then34, label %if.else, !dbg !6245

if.then34:                                        ; preds = %if.end32
  call void @_ZN11GCS_MAVLINK16load_signing_keyEv(%class.GCS_MAVLINK* %this1), !dbg !6246
  %52 = load %struct.__mavlink_status*, %struct.__mavlink_status** %status, align 8, !dbg !6248
  %signing = getelementptr inbounds %struct.__mavlink_status, %struct.__mavlink_status* %52, i32 0, i32 11, !dbg !6250
  %53 = load %struct.__mavlink_signing*, %struct.__mavlink_signing** %signing, align 8, !dbg !6250
  %cmp35 = icmp eq %struct.__mavlink_signing* %53, null, !dbg !6251
  br i1 %cmp35, label %if.then36, label %if.end39, !dbg !6252

if.then36:                                        ; preds = %if.then34
  %54 = load %struct.__mavlink_status*, %struct.__mavlink_status** %status, align 8, !dbg !6253
  %flags = getelementptr inbounds %struct.__mavlink_status, %struct.__mavlink_status* %54, i32 0, i32 9, !dbg !6255
  %55 = load i8, i8* %flags, align 8, !dbg !6256
  %conv37 = zext i8 %55 to i32, !dbg !6256
  %or = or i32 %conv37, 2, !dbg !6256
  %conv38 = trunc i32 %or to i8, !dbg !6256
  store i8 %conv38, i8* %flags, align 8, !dbg !6256
  br label %if.end39, !dbg !6257

if.end39:                                         ; preds = %if.then36, %if.then34
  %56 = load %"class.AP_HAL::HAL"*, %"class.AP_HAL::HAL"** @hal, align 8, !dbg !6258
  %util = getelementptr inbounds %"class.AP_HAL::HAL", %"class.AP_HAL::HAL"* %56, i32 0, i32 17, !dbg !6259
  %57 = load %"class.AP_HAL::Util"*, %"class.AP_HAL::Util"** %util, align 8, !dbg !6259
  call void @_ZN6AP_HAL4Util16set_capabilitiesEm(%"class.AP_HAL::Util"* %57, i64 8192), !dbg !6260
  br label %if.end46, !dbg !6261

if.else:                                          ; preds = %if.end32
  %58 = load %struct.__mavlink_status*, %struct.__mavlink_status** %status, align 8, !dbg !6262
  %tobool = icmp ne %struct.__mavlink_status* %58, null, !dbg !6262
  br i1 %tobool, label %if.then40, label %if.end46, !dbg !6262

if.then40:                                        ; preds = %if.else
  %59 = load %struct.__mavlink_status*, %struct.__mavlink_status** %status, align 8, !dbg !6265
  %flags41 = getelementptr inbounds %struct.__mavlink_status, %struct.__mavlink_status* %59, i32 0, i32 9, !dbg !6267
  %60 = load i8, i8* %flags41, align 8, !dbg !6268
  %conv42 = zext i8 %60 to i32, !dbg !6268
  %or43 = or i32 %conv42, 2, !dbg !6268
  %conv44 = trunc i32 %or43 to i8, !dbg !6268
  store i8 %conv44, i8* %flags41, align 8, !dbg !6268
  br label %if.end46, !dbg !6269

if.end46:                                         ; preds = %if.else, %if.then40, %if.end39
  %chan47 = getelementptr inbounds %class.GCS_MAVLINK, %class.GCS_MAVLINK* %this1, i32 0, i32 10, !dbg !6270
  %61 = load i32, i32* %chan47, align 8, !dbg !6270
  %cmp48 = icmp eq i32 %61, 0, !dbg !6272
  br i1 %cmp48, label %if.then49, label %if.end54, !dbg !6273

if.then49:                                        ; preds = %if.end46
  %62 = load %struct.__mavlink_status*, %struct.__mavlink_status** %status, align 8, !dbg !6274
  %flags50 = getelementptr inbounds %struct.__mavlink_status, %struct.__mavlink_status* %62, i32 0, i32 9, !dbg !6276
  %63 = load i8, i8* %flags50, align 8, !dbg !6277
  %conv51 = zext i8 %63 to i32, !dbg !6277
  %or52 = or i32 %conv51, 2, !dbg !6277
  %conv53 = trunc i32 %or52 to i8, !dbg !6277
  store i8 %conv53, i8* %flags50, align 8, !dbg !6277
  br label %if.end54, !dbg !6278

if.end54:                                         ; preds = %if.then, %if.then3, %if.then31, %if.then49, %if.end46
  ret void, !dbg !6279
}

declare %"class.AP_HAL::UARTDriver"* @_ZNK16AP_SerialManager11find_serialENS_14SerialProtocolEh(%class.AP_SerialManager*, i32, i8 zeroext) #4

declare zeroext i1 @_ZNK16AP_SerialManager19get_mavlink_channelENS_14SerialProtocolEhR17mavlink_channel_t(%class.AP_SerialManager*, i32, i8 zeroext, i32* dereferenceable(4)) #4

declare i32 @_ZNK16AP_SerialManager13find_baudrateENS_14SerialProtocolEh(%class.AP_SerialManager*, i32, i8 zeroext) #4

declare i32 @_ZNK16AP_SerialManager20get_mavlink_protocolE17mavlink_channel_t(%class.AP_SerialManager*, i32) #4

declare %struct.__mavlink_status* @mavlink_get_channel_status(i8 zeroext) #4

declare void @_ZN11GCS_MAVLINK16load_signing_keyEv(%class.GCS_MAVLINK*) #4

; Function Attrs: nounwind uwtable
define linkonce_odr void @_ZN6AP_HAL4Util16set_capabilitiesEm(%"class.AP_HAL::Util"* %this, i64 %cap) #0 comdat align 2 !dbg !6280 {
entry:
  %this.addr = alloca %"class.AP_HAL::Util"*, align 8
  %cap.addr = alloca i64, align 8
  store %"class.AP_HAL::Util"* %this, %"class.AP_HAL::Util"** %this.addr, align 8
  call void @llvm.dbg.declare(metadata %"class.AP_HAL::Util"** %this.addr, metadata !6285, metadata !6032), !dbg !6287
  store i64 %cap, i64* %cap.addr, align 8
  call void @llvm.dbg.declare(metadata i64* %cap.addr, metadata !6288, metadata !6032), !dbg !6289
  %this1 = load %"class.AP_HAL::Util"*, %"class.AP_HAL::Util"** %this.addr, align 8
  %0 = load i64, i64* %cap.addr, align 8, !dbg !6290
  %capabilities = getelementptr inbounds %"class.AP_HAL::Util", %"class.AP_HAL::Util"* %this1, i32 0, i32 2, !dbg !6291
  %1 = load i64, i64* %capabilities, align 8, !dbg !6292
  %or = or i64 %1, %0, !dbg !6292
  store i64 %or, i64* %capabilities, align 8, !dbg !6292
  ret void, !dbg !6293
}

; Function Attrs: nounwind uwtable
define void @_ZN11GCS_MAVLINK20queued_waypoint_sendEv(%class.GCS_MAVLINK* %this) #0 align 2 !dbg !6294 {
entry:
  %this.addr = alloca %class.GCS_MAVLINK*, align 8
  store %class.GCS_MAVLINK* %this, %class.GCS_MAVLINK** %this.addr, align 8
  call void @llvm.dbg.declare(metadata %class.GCS_MAVLINK** %this.addr, metadata !6295, metadata !6032), !dbg !6296
  %this1 = load %class.GCS_MAVLINK*, %class.GCS_MAVLINK** %this.addr, align 8
  %initialised = getelementptr inbounds %class.GCS_MAVLINK, %class.GCS_MAVLINK* %this1, i32 0, i32 1, !dbg !6297
  %0 = load i8, i8* %initialised, align 8, !dbg !6297
  %tobool = trunc i8 %0 to i1, !dbg !6297
  br i1 %tobool, label %land.lhs.true, label %if.end, !dbg !6299

land.lhs.true:                                    ; preds = %entry
  %waypoint_receiving = getelementptr inbounds %class.GCS_MAVLINK, %class.GCS_MAVLINK* %this1, i32 0, i32 5, !dbg !6300
  %1 = load i8, i8* %waypoint_receiving, align 2, !dbg !6300
  %tobool2 = trunc i8 %1 to i1, !dbg !6300
  br i1 %tobool2, label %land.lhs.true3, label %if.end, !dbg !6301

land.lhs.true3:                                   ; preds = %land.lhs.true
  %waypoint_request_i = getelementptr inbounds %class.GCS_MAVLINK, %class.GCS_MAVLINK* %this1, i32 0, i32 7, !dbg !6302
  %2 = load i16, i16* %waypoint_request_i, align 4, !dbg !6302
  %conv = zext i16 %2 to i32, !dbg !6302
  %waypoint_request_last = getelementptr inbounds %class.GCS_MAVLINK, %class.GCS_MAVLINK* %this1, i32 0, i32 8, !dbg !6303
  %3 = load i16, i16* %waypoint_request_last, align 2, !dbg !6303
  %conv4 = zext i16 %3 to i32, !dbg !6303
  %cmp = icmp sle i32 %conv, %conv4, !dbg !6304
  br i1 %cmp, label %if.then, label %if.end, !dbg !6305

if.then:                                          ; preds = %land.lhs.true3
  %chan = getelementptr inbounds %class.GCS_MAVLINK, %class.GCS_MAVLINK* %this1, i32 0, i32 10, !dbg !6307
  %4 = load i32, i32* %chan, align 8, !dbg !6307
  %waypoint_dest_sysid = getelementptr inbounds %class.GCS_MAVLINK, %class.GCS_MAVLINK* %this1, i32 0, i32 22, !dbg !6309
  %5 = load i16, i16* %waypoint_dest_sysid, align 2, !dbg !6309
  %conv5 = trunc i16 %5 to i8, !dbg !6309
  %waypoint_dest_compid = getelementptr inbounds %class.GCS_MAVLINK, %class.GCS_MAVLINK* %this1, i32 0, i32 23, !dbg !6310
  %6 = load i16, i16* %waypoint_dest_compid, align 4, !dbg !6310
  %conv6 = trunc i16 %6 to i8, !dbg !6310
  %waypoint_request_i7 = getelementptr inbounds %class.GCS_MAVLINK, %class.GCS_MAVLINK* %this1, i32 0, i32 7, !dbg !6311
  %7 = load i16, i16* %waypoint_request_i7, align 4, !dbg !6311
  call void @_ZL32mavlink_msg_mission_request_send17mavlink_channel_thhth(i32 %4, i8 zeroext %conv5, i8 zeroext %conv6, i16 zeroext %7, i8 zeroext 0), !dbg !6312
  br label %if.end, !dbg !6313

if.end:                                           ; preds = %if.then, %land.lhs.true3, %land.lhs.true, %entry
  ret void, !dbg !6314
}

; Function Attrs: inlinehint nounwind uwtable
define internal void @_ZL32mavlink_msg_mission_request_send17mavlink_channel_thhth(i32 %chan, i8 zeroext %target_system, i8 zeroext %target_component, i16 zeroext %seq, i8 zeroext %mission_type) #3 !dbg !6315 {
entry:
  %chan.addr = alloca i32, align 4
  %target_system.addr = alloca i8, align 1
  %target_component.addr = alloca i8, align 1
  %seq.addr = alloca i16, align 2
  %mission_type.addr = alloca i8, align 1
  %packet = alloca %struct.__mavlink_mission_request_t, align 1
  store i32 %chan, i32* %chan.addr, align 4
  call void @llvm.dbg.declare(metadata i32* %chan.addr, metadata !6319, metadata !6032), !dbg !6320
  store i8 %target_system, i8* %target_system.addr, align 1
  call void @llvm.dbg.declare(metadata i8* %target_system.addr, metadata !6321, metadata !6032), !dbg !6322
  store i8 %target_component, i8* %target_component.addr, align 1
  call void @llvm.dbg.declare(metadata i8* %target_component.addr, metadata !6323, metadata !6032), !dbg !6324
  store i16 %seq, i16* %seq.addr, align 2
  call void @llvm.dbg.declare(metadata i16* %seq.addr, metadata !6325, metadata !6032), !dbg !6326
  store i8 %mission_type, i8* %mission_type.addr, align 1
  call void @llvm.dbg.declare(metadata i8* %mission_type.addr, metadata !6327, metadata !6032), !dbg !6328
  call void @llvm.dbg.declare(metadata %struct.__mavlink_mission_request_t* %packet, metadata !6329, metadata !6032), !dbg !6337
  %0 = load i16, i16* %seq.addr, align 2, !dbg !6338
  %seq1 = getelementptr inbounds %struct.__mavlink_mission_request_t, %struct.__mavlink_mission_request_t* %packet, i32 0, i32 0, !dbg !6339
  store i16 %0, i16* %seq1, align 1, !dbg !6340
  %1 = load i8, i8* %target_system.addr, align 1, !dbg !6341
  %target_system2 = getelementptr inbounds %struct.__mavlink_mission_request_t, %struct.__mavlink_mission_request_t* %packet, i32 0, i32 1, !dbg !6342
  store i8 %1, i8* %target_system2, align 1, !dbg !6343
  %2 = load i8, i8* %target_component.addr, align 1, !dbg !6344
  %target_component3 = getelementptr inbounds %struct.__mavlink_mission_request_t, %struct.__mavlink_mission_request_t* %packet, i32 0, i32 2, !dbg !6345
  store i8 %2, i8* %target_component3, align 1, !dbg !6346
  %3 = load i8, i8* %mission_type.addr, align 1, !dbg !6347
  %mission_type4 = getelementptr inbounds %struct.__mavlink_mission_request_t, %struct.__mavlink_mission_request_t* %packet, i32 0, i32 3, !dbg !6348
  store i8 %3, i8* %mission_type4, align 1, !dbg !6349
  %4 = load i32, i32* %chan.addr, align 4, !dbg !6350
  %5 = bitcast %struct.__mavlink_mission_request_t* %packet to i8*, !dbg !6351
  call void @_mav_finalize_message_chan_send(i32 %4, i32 40, i8* %5, i8 zeroext 4, i8 zeroext 5, i8 zeroext -26), !dbg !6352
  ret void, !dbg !6353
}

; Function Attrs: nounwind uwtable
define void @_ZN11GCS_MAVLINK12send_meminfoEv(%class.GCS_MAVLINK* %this) #0 align 2 !dbg !6354 {
entry:
  %this.addr = alloca %class.GCS_MAVLINK*, align 8
  %__brkval = alloca i32, align 4
  %memory = alloca i32, align 4
  %ref.tmp = alloca i32, align 4
  store %class.GCS_MAVLINK* %this, %class.GCS_MAVLINK** %this.addr, align 8
  call void @llvm.dbg.declare(metadata %class.GCS_MAVLINK** %this.addr, metadata !6355, metadata !6032), !dbg !6356
  %this1 = load %class.GCS_MAVLINK*, %class.GCS_MAVLINK** %this.addr, align 8
  call void @llvm.dbg.declare(metadata i32* %__brkval, metadata !6357, metadata !6032), !dbg !6358
  store i32 0, i32* %__brkval, align 4, !dbg !6358
  call void @llvm.dbg.declare(metadata i32* %memory, metadata !6359, metadata !6032), !dbg !6360
  %0 = load %"class.AP_HAL::HAL"*, %"class.AP_HAL::HAL"** @hal, align 8, !dbg !6361
  %util = getelementptr inbounds %"class.AP_HAL::HAL", %"class.AP_HAL::HAL"* %0, i32 0, i32 17, !dbg !6362
  %1 = load %"class.AP_HAL::Util"*, %"class.AP_HAL::Util"** %util, align 8, !dbg !6362
  %2 = bitcast %"class.AP_HAL::Util"* %1 to i32 (%"class.AP_HAL::Util"*)***, !dbg !6363
  %vtable = load i32 (%"class.AP_HAL::Util"*)**, i32 (%"class.AP_HAL::Util"*)*** %2, align 8, !dbg !6363
  %vfn = getelementptr inbounds i32 (%"class.AP_HAL::Util"*)*, i32 (%"class.AP_HAL::Util"*)** %vtable, i64 23, !dbg !6363
  %3 = load i32 (%"class.AP_HAL::Util"*)*, i32 (%"class.AP_HAL::Util"*)** %vfn, align 8, !dbg !6363
  %call = call i32 %3(%"class.AP_HAL::Util"* %1), !dbg !6363
  store i32 %call, i32* %memory, align 4, !dbg !6360
  %chan = getelementptr inbounds %class.GCS_MAVLINK, %class.GCS_MAVLINK* %this1, i32 0, i32 10, !dbg !6364
  %4 = load i32, i32* %chan, align 8, !dbg !6364
  %5 = load i32, i32* %__brkval, align 4, !dbg !6365
  %conv = trunc i32 %5 to i16, !dbg !6365
  store i32 65535, i32* %ref.tmp, align 4, !dbg !6366
  %call2 = call dereferenceable(4) i32* @_ZL3MINIjjEDTqultfp_fp0_fp_fp0_ERKT_RKT0_(i32* dereferenceable(4) %memory, i32* dereferenceable(4) %ref.tmp), !dbg !6367
  %6 = load i32, i32* %call2, align 4, !dbg !6367
  %conv3 = trunc i32 %6 to i16, !dbg !6367
  %7 = load i32, i32* %memory, align 4, !dbg !6368
  call void @_ZL24mavlink_msg_meminfo_send17mavlink_channel_tttj(i32 %4, i16 zeroext %conv, i16 zeroext %conv3, i32 %7), !dbg !6369
  ret void, !dbg !6371
}

; Function Attrs: inlinehint nounwind uwtable
define internal void @_ZL24mavlink_msg_meminfo_send17mavlink_channel_tttj(i32 %chan, i16 zeroext %brkval, i16 zeroext %freemem, i32 %freemem32) #3 !dbg !6372 {
entry:
  %chan.addr = alloca i32, align 4
  %brkval.addr = alloca i16, align 2
  %freemem.addr = alloca i16, align 2
  %freemem32.addr = alloca i32, align 4
  %packet = alloca %struct.__mavlink_meminfo_t, align 1
  store i32 %chan, i32* %chan.addr, align 4
  call void @llvm.dbg.declare(metadata i32* %chan.addr, metadata !6376, metadata !6032), !dbg !6377
  store i16 %brkval, i16* %brkval.addr, align 2
  call void @llvm.dbg.declare(metadata i16* %brkval.addr, metadata !6378, metadata !6032), !dbg !6379
  store i16 %freemem, i16* %freemem.addr, align 2
  call void @llvm.dbg.declare(metadata i16* %freemem.addr, metadata !6380, metadata !6032), !dbg !6381
  store i32 %freemem32, i32* %freemem32.addr, align 4
  call void @llvm.dbg.declare(metadata i32* %freemem32.addr, metadata !6382, metadata !6032), !dbg !6383
  call void @llvm.dbg.declare(metadata %struct.__mavlink_meminfo_t* %packet, metadata !6384, metadata !6032), !dbg !6391
  %0 = load i16, i16* %brkval.addr, align 2, !dbg !6392
  %brkval1 = getelementptr inbounds %struct.__mavlink_meminfo_t, %struct.__mavlink_meminfo_t* %packet, i32 0, i32 0, !dbg !6393
  store i16 %0, i16* %brkval1, align 1, !dbg !6394
  %1 = load i16, i16* %freemem.addr, align 2, !dbg !6395
  %freemem2 = getelementptr inbounds %struct.__mavlink_meminfo_t, %struct.__mavlink_meminfo_t* %packet, i32 0, i32 1, !dbg !6396
  store i16 %1, i16* %freemem2, align 1, !dbg !6397
  %2 = load i32, i32* %freemem32.addr, align 4, !dbg !6398
  %freemem323 = getelementptr inbounds %struct.__mavlink_meminfo_t, %struct.__mavlink_meminfo_t* %packet, i32 0, i32 2, !dbg !6399
  store i32 %2, i32* %freemem323, align 1, !dbg !6400
  %3 = load i32, i32* %chan.addr, align 4, !dbg !6401
  %4 = bitcast %struct.__mavlink_meminfo_t* %packet to i8*, !dbg !6402
  call void @_mav_finalize_message_chan_send(i32 %3, i32 152, i8* %4, i8 zeroext 4, i8 zeroext 8, i8 zeroext -48), !dbg !6403
  ret void, !dbg !6404
}

; Function Attrs: inlinehint nounwind uwtable
define internal dereferenceable(4) i32* @_ZL3MINIjjEDTqultfp_fp0_fp_fp0_ERKT_RKT0_(i32* dereferenceable(4) %one, i32* dereferenceable(4) %two) #3 !dbg !6405 {
entry:
  %one.addr = alloca i32*, align 8
  %two.addr = alloca i32*, align 8
  store i32* %one, i32** %one.addr, align 8
  call void @llvm.dbg.declare(metadata i32** %one.addr, metadata !6413, metadata !6032), !dbg !6414
  store i32* %two, i32** %two.addr, align 8
  call void @llvm.dbg.declare(metadata i32** %two.addr, metadata !6415, metadata !6032), !dbg !6416
  %0 = load i32*, i32** %one.addr, align 8, !dbg !6417
  %1 = load i32, i32* %0, align 4, !dbg !6417
  %2 = load i32*, i32** %two.addr, align 8, !dbg !6418
  %3 = load i32, i32* %2, align 4, !dbg !6418
  %cmp = icmp ult i32 %1, %3, !dbg !6419
  br i1 %cmp, label %cond.true, label %cond.false, !dbg !6417

cond.true:                                        ; preds = %entry
  %4 = load i32*, i32** %one.addr, align 8, !dbg !6420
  br label %cond.end, !dbg !6422

cond.false:                                       ; preds = %entry
  %5 = load i32*, i32** %two.addr, align 8, !dbg !6423
  br label %cond.end, !dbg !6425

cond.end:                                         ; preds = %cond.false, %cond.true
  %cond-lvalue = phi i32* [ %4, %cond.true ], [ %5, %cond.false ], !dbg !6426
  ret i32* %cond-lvalue, !dbg !6428
}

; Function Attrs: nounwind uwtable
define void @_ZN11GCS_MAVLINK17send_power_statusEv(%class.GCS_MAVLINK* %this) #0 align 2 !dbg !6429 {
entry:
  %this.addr = alloca %class.GCS_MAVLINK*, align 8
  store %class.GCS_MAVLINK* %this, %class.GCS_MAVLINK** %this.addr, align 8
  call void @llvm.dbg.declare(metadata %class.GCS_MAVLINK** %this.addr, metadata !6430, metadata !6032), !dbg !6431
  %this1 = load %class.GCS_MAVLINK*, %class.GCS_MAVLINK** %this.addr, align 8
  %chan = getelementptr inbounds %class.GCS_MAVLINK, %class.GCS_MAVLINK* %this1, i32 0, i32 10, !dbg !6432
  %0 = load i32, i32* %chan, align 8, !dbg !6432
  %1 = load %"class.AP_HAL::HAL"*, %"class.AP_HAL::HAL"** @hal, align 8, !dbg !6433
  %analogin = getelementptr inbounds %"class.AP_HAL::HAL", %"class.AP_HAL::HAL"* %1, i32 0, i32 10, !dbg !6434
  %2 = load %"class.AP_HAL::AnalogIn"*, %"class.AP_HAL::AnalogIn"** %analogin, align 8, !dbg !6434
  %3 = bitcast %"class.AP_HAL::AnalogIn"* %2 to float (%"class.AP_HAL::AnalogIn"*)***, !dbg !6435
  %vtable = load float (%"class.AP_HAL::AnalogIn"*)**, float (%"class.AP_HAL::AnalogIn"*)*** %3, align 8, !dbg !6435
  %vfn = getelementptr inbounds float (%"class.AP_HAL::AnalogIn"*)*, float (%"class.AP_HAL::AnalogIn"*)** %vtable, i64 2, !dbg !6435
  %4 = load float (%"class.AP_HAL::AnalogIn"*)*, float (%"class.AP_HAL::AnalogIn"*)** %vfn, align 8, !dbg !6435
  %call = call float %4(%"class.AP_HAL::AnalogIn"* %2), !dbg !6435
  %mul = fmul float %call, 1.000000e+03, !dbg !6436
  %conv = fptoui float %mul to i16, !dbg !6433
  %5 = load %"class.AP_HAL::HAL"*, %"class.AP_HAL::HAL"** @hal, align 8, !dbg !6437
  %analogin2 = getelementptr inbounds %"class.AP_HAL::HAL", %"class.AP_HAL::HAL"* %5, i32 0, i32 10, !dbg !6438
  %6 = load %"class.AP_HAL::AnalogIn"*, %"class.AP_HAL::AnalogIn"** %analogin2, align 8, !dbg !6438
  %7 = bitcast %"class.AP_HAL::AnalogIn"* %6 to float (%"class.AP_HAL::AnalogIn"*)***, !dbg !6439
  %vtable3 = load float (%"class.AP_HAL::AnalogIn"*)**, float (%"class.AP_HAL::AnalogIn"*)*** %7, align 8, !dbg !6439
  %vfn4 = getelementptr inbounds float (%"class.AP_HAL::AnalogIn"*)*, float (%"class.AP_HAL::AnalogIn"*)** %vtable3, i64 3, !dbg !6439
  %8 = load float (%"class.AP_HAL::AnalogIn"*)*, float (%"class.AP_HAL::AnalogIn"*)** %vfn4, align 8, !dbg !6439
  %call5 = call float %8(%"class.AP_HAL::AnalogIn"* %6), !dbg !6439
  %mul6 = fmul float %call5, 1.000000e+03, !dbg !6440
  %conv7 = fptoui float %mul6 to i16, !dbg !6437
  %9 = load %"class.AP_HAL::HAL"*, %"class.AP_HAL::HAL"** @hal, align 8, !dbg !6441
  %analogin8 = getelementptr inbounds %"class.AP_HAL::HAL", %"class.AP_HAL::HAL"* %9, i32 0, i32 10, !dbg !6442
  %10 = load %"class.AP_HAL::AnalogIn"*, %"class.AP_HAL::AnalogIn"** %analogin8, align 8, !dbg !6442
  %11 = bitcast %"class.AP_HAL::AnalogIn"* %10 to i16 (%"class.AP_HAL::AnalogIn"*)***, !dbg !6443
  %vtable9 = load i16 (%"class.AP_HAL::AnalogIn"*)**, i16 (%"class.AP_HAL::AnalogIn"*)*** %11, align 8, !dbg !6443
  %vfn10 = getelementptr inbounds i16 (%"class.AP_HAL::AnalogIn"*)*, i16 (%"class.AP_HAL::AnalogIn"*)** %vtable9, i64 4, !dbg !6443
  %12 = load i16 (%"class.AP_HAL::AnalogIn"*)*, i16 (%"class.AP_HAL::AnalogIn"*)** %vfn10, align 8, !dbg !6443
  %call11 = call zeroext i16 %12(%"class.AP_HAL::AnalogIn"* %10), !dbg !6443
  call void @_ZL29mavlink_msg_power_status_send17mavlink_channel_tttt(i32 %0, i16 zeroext %conv, i16 zeroext %conv7, i16 zeroext %call11), !dbg !6444
  ret void, !dbg !6445
}

; Function Attrs: inlinehint nounwind uwtable
define internal void @_ZL29mavlink_msg_power_status_send17mavlink_channel_tttt(i32 %chan, i16 zeroext %Vcc, i16 zeroext %Vservo, i16 zeroext %flags) #3 !dbg !6446 {
entry:
  %chan.addr = alloca i32, align 4
  %Vcc.addr = alloca i16, align 2
  %Vservo.addr = alloca i16, align 2
  %flags.addr = alloca i16, align 2
  %packet = alloca %struct.__mavlink_power_status_t, align 1
  store i32 %chan, i32* %chan.addr, align 4
  call void @llvm.dbg.declare(metadata i32* %chan.addr, metadata !6450, metadata !6032), !dbg !6451
  store i16 %Vcc, i16* %Vcc.addr, align 2
  call void @llvm.dbg.declare(metadata i16* %Vcc.addr, metadata !6452, metadata !6032), !dbg !6453
  store i16 %Vservo, i16* %Vservo.addr, align 2
  call void @llvm.dbg.declare(metadata i16* %Vservo.addr, metadata !6454, metadata !6032), !dbg !6455
  store i16 %flags, i16* %flags.addr, align 2
  call void @llvm.dbg.declare(metadata i16* %flags.addr, metadata !6456, metadata !6032), !dbg !6457
  call void @llvm.dbg.declare(metadata %struct.__mavlink_power_status_t* %packet, metadata !6458, metadata !6032), !dbg !6465
  %0 = load i16, i16* %Vcc.addr, align 2, !dbg !6466
  %Vcc1 = getelementptr inbounds %struct.__mavlink_power_status_t, %struct.__mavlink_power_status_t* %packet, i32 0, i32 0, !dbg !6467
  store i16 %0, i16* %Vcc1, align 1, !dbg !6468
  %1 = load i16, i16* %Vservo.addr, align 2, !dbg !6469
  %Vservo2 = getelementptr inbounds %struct.__mavlink_power_status_t, %struct.__mavlink_power_status_t* %packet, i32 0, i32 1, !dbg !6470
  store i16 %1, i16* %Vservo2, align 1, !dbg !6471
  %2 = load i16, i16* %flags.addr, align 2, !dbg !6472
  %flags3 = getelementptr inbounds %struct.__mavlink_power_status_t, %struct.__mavlink_power_status_t* %packet, i32 0, i32 2, !dbg !6473
  store i16 %2, i16* %flags3, align 1, !dbg !6474
  %3 = load i32, i32* %chan.addr, align 4, !dbg !6475
  %4 = bitcast %struct.__mavlink_power_status_t* %packet to i8*, !dbg !6476
  call void @_mav_finalize_message_chan_send(i32 %3, i32 125, i8* %4, i8 zeroext 6, i8 zeroext 6, i8 zeroext -53), !dbg !6477
  ret void, !dbg !6478
}

; Function Attrs: nounwind uwtable
define void @_ZNK11GCS_MAVLINK19send_battery_statusERK14AP_BattMonitorh(%class.GCS_MAVLINK* %this, %class.AP_BattMonitor* dereferenceable(312) %battery, i8 zeroext %instance) #0 align 2 !dbg !6479 {
entry:
  %this.addr = alloca %class.GCS_MAVLINK*, align 8
  %battery.addr = alloca %class.AP_BattMonitor*, align 8
  %instance.addr = alloca i8, align 1
  %temp = alloca float, align 4
  %got_temperature = alloca i8, align 1
  store %class.GCS_MAVLINK* %this, %class.GCS_MAVLINK** %this.addr, align 8
  call void @llvm.dbg.declare(metadata %class.GCS_MAVLINK** %this.addr, metadata !6480, metadata !6032), !dbg !6482
  store %class.AP_BattMonitor* %battery, %class.AP_BattMonitor** %battery.addr, align 8
  call void @llvm.dbg.declare(metadata %class.AP_BattMonitor** %battery.addr, metadata !6483, metadata !6032), !dbg !6484
  store i8 %instance, i8* %instance.addr, align 1
  call void @llvm.dbg.declare(metadata i8* %instance.addr, metadata !6485, metadata !6032), !dbg !6486
  %this1 = load %class.GCS_MAVLINK*, %class.GCS_MAVLINK** %this.addr, align 8
  call void @llvm.dbg.declare(metadata float* %temp, metadata !6487, metadata !6032), !dbg !6488
  call void @llvm.dbg.declare(metadata i8* %got_temperature, metadata !6489, metadata !6032), !dbg !6490
  %0 = load %class.AP_BattMonitor*, %class.AP_BattMonitor** %battery.addr, align 8, !dbg !6491
  %1 = load i8, i8* %instance.addr, align 1, !dbg !6492
  %call = call zeroext i1 @_ZNK14AP_BattMonitor15get_temperatureERfh(%class.AP_BattMonitor* %0, float* dereferenceable(4) %temp, i8 zeroext %1), !dbg !6493
  %frombool = zext i1 %call to i8, !dbg !6490
  store i8 %frombool, i8* %got_temperature, align 1, !dbg !6490
  %chan = getelementptr inbounds %class.GCS_MAVLINK, %class.GCS_MAVLINK* %this1, i32 0, i32 10, !dbg !6494
  %2 = load i32, i32* %chan, align 8, !dbg !6494
  %3 = load i8, i8* %instance.addr, align 1, !dbg !6495
  %4 = load i8, i8* %got_temperature, align 1, !dbg !6496
  %tobool = trunc i8 %4 to i1, !dbg !6496
  br i1 %tobool, label %cond.true, label %cond.false, !dbg !6496

cond.true:                                        ; preds = %entry
  %5 = load float, float* %temp, align 4, !dbg !6497
  %mul = fmul float %5, 1.000000e+02, !dbg !6499
  %conv = fptosi float %mul to i16, !dbg !6500
  %conv2 = sext i16 %conv to i32, !dbg !6501
  br label %cond.end, !dbg !6502

cond.false:                                       ; preds = %entry
  br label %cond.end, !dbg !6503

cond.end:                                         ; preds = %cond.false, %cond.true
  %cond = phi i32 [ %conv2, %cond.true ], [ 32767, %cond.false ], !dbg !6505
  %conv3 = trunc i32 %cond to i16, !dbg !6505
  %6 = load %class.AP_BattMonitor*, %class.AP_BattMonitor** %battery.addr, align 8, !dbg !6507
  %7 = load i8, i8* %instance.addr, align 1, !dbg !6508
  %call4 = call dereferenceable(20) %"struct.AP_BattMonitor::cells"* @_ZNK14AP_BattMonitor17get_cell_voltagesEh(%class.AP_BattMonitor* %6, i8 zeroext %7), !dbg !6509
  %cells = getelementptr inbounds %"struct.AP_BattMonitor::cells", %"struct.AP_BattMonitor::cells"* %call4, i32 0, i32 0, !dbg !6510
  %arraydecay = getelementptr inbounds [10 x i16], [10 x i16]* %cells, i32 0, i32 0, !dbg !6507
  %8 = load %class.AP_BattMonitor*, %class.AP_BattMonitor** %battery.addr, align 8, !dbg !6511
  %9 = load i8, i8* %instance.addr, align 1, !dbg !6512
  %call5 = call zeroext i1 @_ZNK14AP_BattMonitor11has_currentEh(%class.AP_BattMonitor* %8, i8 zeroext %9), !dbg !6513
  br i1 %call5, label %cond.true6, label %cond.false9, !dbg !6511

cond.true6:                                       ; preds = %cond.end
  %10 = load %class.AP_BattMonitor*, %class.AP_BattMonitor** %battery.addr, align 8, !dbg !6514
  %11 = load i8, i8* %instance.addr, align 1, !dbg !6515
  %call7 = call float @_ZNK14AP_BattMonitor12current_ampsEh(%class.AP_BattMonitor* %10, i8 zeroext %11), !dbg !6516
  %mul8 = fmul float %call7, 1.000000e+02, !dbg !6517
  br label %cond.end10, !dbg !6518

cond.false9:                                      ; preds = %cond.end
  br label %cond.end10, !dbg !6519

cond.end10:                                       ; preds = %cond.false9, %cond.true6
  %cond11 = phi float [ %mul8, %cond.true6 ], [ -1.000000e+00, %cond.false9 ], !dbg !6520
  %conv12 = fptosi float %cond11 to i16, !dbg !6520
  %12 = load %class.AP_BattMonitor*, %class.AP_BattMonitor** %battery.addr, align 8, !dbg !6521
  %13 = load i8, i8* %instance.addr, align 1, !dbg !6522
  %call13 = call zeroext i1 @_ZNK14AP_BattMonitor11has_currentEh(%class.AP_BattMonitor* %12, i8 zeroext %13), !dbg !6523
  br i1 %call13, label %cond.true14, label %cond.false16, !dbg !6521

cond.true14:                                      ; preds = %cond.end10
  %14 = load %class.AP_BattMonitor*, %class.AP_BattMonitor** %battery.addr, align 8, !dbg !6524
  %15 = load i8, i8* %instance.addr, align 1, !dbg !6525
  %call15 = call float @_ZNK14AP_BattMonitor12consumed_mahEh(%class.AP_BattMonitor* %14, i8 zeroext %15), !dbg !6526
  br label %cond.end17, !dbg !6527

cond.false16:                                     ; preds = %cond.end10
  br label %cond.end17, !dbg !6528

cond.end17:                                       ; preds = %cond.false16, %cond.true14
  %cond18 = phi float [ %call15, %cond.true14 ], [ -1.000000e+00, %cond.false16 ], !dbg !6529
  %conv19 = fptosi float %cond18 to i32, !dbg !6529
  %16 = load %class.AP_BattMonitor*, %class.AP_BattMonitor** %battery.addr, align 8, !dbg !6530
  %17 = load i8, i8* %instance.addr, align 1, !dbg !6531
  %call20 = call zeroext i1 @_ZNK14AP_BattMonitor19has_consumed_energyEh(%class.AP_BattMonitor* %16, i8 zeroext %17), !dbg !6532
  br i1 %call20, label %cond.true21, label %cond.false24, !dbg !6530

cond.true21:                                      ; preds = %cond.end17
  %18 = load %class.AP_BattMonitor*, %class.AP_BattMonitor** %battery.addr, align 8, !dbg !6533
  %19 = load i8, i8* %instance.addr, align 1, !dbg !6534
  %call22 = call float @_ZNK14AP_BattMonitor11consumed_whEh(%class.AP_BattMonitor* %18, i8 zeroext %19), !dbg !6535
  %mul23 = fmul float %call22, 3.600000e+01, !dbg !6536
  br label %cond.end25, !dbg !6537

cond.false24:                                     ; preds = %cond.end17
  br label %cond.end25, !dbg !6538

cond.end25:                                       ; preds = %cond.false24, %cond.true21
  %cond26 = phi float [ %mul23, %cond.true21 ], [ -1.000000e+00, %cond.false24 ], !dbg !6539
  %conv27 = fptosi float %cond26 to i32, !dbg !6539
  %20 = load %class.AP_BattMonitor*, %class.AP_BattMonitor** %battery.addr, align 8, !dbg !6540
  %21 = bitcast %class.AP_BattMonitor* %20 to i8 (%class.AP_BattMonitor*, i8)***, !dbg !6541
  %vtable = load i8 (%class.AP_BattMonitor*, i8)**, i8 (%class.AP_BattMonitor*, i8)*** %21, align 8, !dbg !6541
  %vfn = getelementptr inbounds i8 (%class.AP_BattMonitor*, i8)*, i8 (%class.AP_BattMonitor*, i8)** %vtable, i64 0, !dbg !6541
  %22 = load i8 (%class.AP_BattMonitor*, i8)*, i8 (%class.AP_BattMonitor*, i8)** %vfn, align 8, !dbg !6541
  %23 = load i8, i8* %instance.addr, align 1, !dbg !6542
  %call28 = call zeroext i8 %22(%class.AP_BattMonitor* %20, i8 zeroext %23), !dbg !6541
  call void @_ZL31mavlink_msg_battery_status_send17mavlink_channel_thhhsPKtsiiaih(i32 %2, i8 zeroext %3, i8 zeroext 0, i8 zeroext 0, i16 signext %conv3, i16* %arraydecay, i16 signext %conv12, i32 %conv19, i32 %conv27, i8 signext %call28, i32 0, i8 zeroext 0), !dbg !6543
  ret void, !dbg !6544
}

declare zeroext i1 @_ZNK14AP_BattMonitor15get_temperatureERfh(%class.AP_BattMonitor*, float* dereferenceable(4), i8 zeroext) #4

; Function Attrs: inlinehint nounwind uwtable
define internal void @_ZL31mavlink_msg_battery_status_send17mavlink_channel_thhhsPKtsiiaih(i32 %chan, i8 zeroext %id, i8 zeroext %battery_function, i8 zeroext %type, i16 signext %temperature, i16* %voltages, i16 signext %current_battery, i32 %current_consumed, i32 %energy_consumed, i8 signext %battery_remaining, i32 %time_remaining, i8 zeroext %charge_state) #3 !dbg !6545 {
entry:
  %chan.addr = alloca i32, align 4
  %id.addr = alloca i8, align 1
  %battery_function.addr = alloca i8, align 1
  %type.addr = alloca i8, align 1
  %temperature.addr = alloca i16, align 2
  %voltages.addr = alloca i16*, align 8
  %current_battery.addr = alloca i16, align 2
  %current_consumed.addr = alloca i32, align 4
  %energy_consumed.addr = alloca i32, align 4
  %battery_remaining.addr = alloca i8, align 1
  %time_remaining.addr = alloca i32, align 4
  %charge_state.addr = alloca i8, align 1
  %packet = alloca %struct.__mavlink_battery_status_t, align 1
  store i32 %chan, i32* %chan.addr, align 4
  call void @llvm.dbg.declare(metadata i32* %chan.addr, metadata !6550, metadata !6032), !dbg !6551
  store i8 %id, i8* %id.addr, align 1
  call void @llvm.dbg.declare(metadata i8* %id.addr, metadata !6552, metadata !6032), !dbg !6553
  store i8 %battery_function, i8* %battery_function.addr, align 1
  call void @llvm.dbg.declare(metadata i8* %battery_function.addr, metadata !6554, metadata !6032), !dbg !6555
  store i8 %type, i8* %type.addr, align 1
  call void @llvm.dbg.declare(metadata i8* %type.addr, metadata !6556, metadata !6032), !dbg !6557
  store i16 %temperature, i16* %temperature.addr, align 2
  call void @llvm.dbg.declare(metadata i16* %temperature.addr, metadata !6558, metadata !6032), !dbg !6559
  store i16* %voltages, i16** %voltages.addr, align 8
  call void @llvm.dbg.declare(metadata i16** %voltages.addr, metadata !6560, metadata !6032), !dbg !6561
  store i16 %current_battery, i16* %current_battery.addr, align 2
  call void @llvm.dbg.declare(metadata i16* %current_battery.addr, metadata !6562, metadata !6032), !dbg !6563
  store i32 %current_consumed, i32* %current_consumed.addr, align 4
  call void @llvm.dbg.declare(metadata i32* %current_consumed.addr, metadata !6564, metadata !6032), !dbg !6565
  store i32 %energy_consumed, i32* %energy_consumed.addr, align 4
  call void @llvm.dbg.declare(metadata i32* %energy_consumed.addr, metadata !6566, metadata !6032), !dbg !6567
  store i8 %battery_remaining, i8* %battery_remaining.addr, align 1
  call void @llvm.dbg.declare(metadata i8* %battery_remaining.addr, metadata !6568, metadata !6032), !dbg !6569
  store i32 %time_remaining, i32* %time_remaining.addr, align 4
  call void @llvm.dbg.declare(metadata i32* %time_remaining.addr, metadata !6570, metadata !6032), !dbg !6571
  store i8 %charge_state, i8* %charge_state.addr, align 1
  call void @llvm.dbg.declare(metadata i8* %charge_state.addr, metadata !6572, metadata !6032), !dbg !6573
  call void @llvm.dbg.declare(metadata %struct.__mavlink_battery_status_t* %packet, metadata !6574, metadata !6032), !dbg !6590
  %0 = load i32, i32* %current_consumed.addr, align 4, !dbg !6591
  %current_consumed1 = getelementptr inbounds %struct.__mavlink_battery_status_t, %struct.__mavlink_battery_status_t* %packet, i32 0, i32 0, !dbg !6592
  store i32 %0, i32* %current_consumed1, align 1, !dbg !6593
  %1 = load i32, i32* %energy_consumed.addr, align 4, !dbg !6594
  %energy_consumed2 = getelementptr inbounds %struct.__mavlink_battery_status_t, %struct.__mavlink_battery_status_t* %packet, i32 0, i32 1, !dbg !6595
  store i32 %1, i32* %energy_consumed2, align 1, !dbg !6596
  %2 = load i16, i16* %temperature.addr, align 2, !dbg !6597
  %temperature3 = getelementptr inbounds %struct.__mavlink_battery_status_t, %struct.__mavlink_battery_status_t* %packet, i32 0, i32 2, !dbg !6598
  store i16 %2, i16* %temperature3, align 1, !dbg !6599
  %3 = load i16, i16* %current_battery.addr, align 2, !dbg !6600
  %current_battery4 = getelementptr inbounds %struct.__mavlink_battery_status_t, %struct.__mavlink_battery_status_t* %packet, i32 0, i32 4, !dbg !6601
  store i16 %3, i16* %current_battery4, align 1, !dbg !6602
  %4 = load i8, i8* %id.addr, align 1, !dbg !6603
  %id5 = getelementptr inbounds %struct.__mavlink_battery_status_t, %struct.__mavlink_battery_status_t* %packet, i32 0, i32 5, !dbg !6604
  store i8 %4, i8* %id5, align 1, !dbg !6605
  %5 = load i8, i8* %battery_function.addr, align 1, !dbg !6606
  %battery_function6 = getelementptr inbounds %struct.__mavlink_battery_status_t, %struct.__mavlink_battery_status_t* %packet, i32 0, i32 6, !dbg !6607
  store i8 %5, i8* %battery_function6, align 1, !dbg !6608
  %6 = load i8, i8* %type.addr, align 1, !dbg !6609
  %type7 = getelementptr inbounds %struct.__mavlink_battery_status_t, %struct.__mavlink_battery_status_t* %packet, i32 0, i32 7, !dbg !6610
  store i8 %6, i8* %type7, align 1, !dbg !6611
  %7 = load i8, i8* %battery_remaining.addr, align 1, !dbg !6612
  %battery_remaining8 = getelementptr inbounds %struct.__mavlink_battery_status_t, %struct.__mavlink_battery_status_t* %packet, i32 0, i32 8, !dbg !6613
  store i8 %7, i8* %battery_remaining8, align 1, !dbg !6614
  %8 = load i32, i32* %time_remaining.addr, align 4, !dbg !6615
  %time_remaining9 = getelementptr inbounds %struct.__mavlink_battery_status_t, %struct.__mavlink_battery_status_t* %packet, i32 0, i32 9, !dbg !6616
  store i32 %8, i32* %time_remaining9, align 1, !dbg !6617
  %9 = load i8, i8* %charge_state.addr, align 1, !dbg !6618
  %charge_state10 = getelementptr inbounds %struct.__mavlink_battery_status_t, %struct.__mavlink_battery_status_t* %packet, i32 0, i32 10, !dbg !6619
  store i8 %9, i8* %charge_state10, align 1, !dbg !6620
  %voltages11 = getelementptr inbounds %struct.__mavlink_battery_status_t, %struct.__mavlink_battery_status_t* %packet, i32 0, i32 3, !dbg !6621
  %arraydecay = getelementptr inbounds [10 x i16], [10 x i16]* %voltages11, i32 0, i32 0, !dbg !6622
  %10 = bitcast i16* %arraydecay to i8*, !dbg !6622
  %11 = load i16*, i16** %voltages.addr, align 8, !dbg !6623
  %12 = bitcast i16* %11 to i8*, !dbg !6623
  call void @_ZL16mav_array_memcpyPvPKvm(i8* %10, i8* %12, i64 20), !dbg !6624
  %13 = load i32, i32* %chan.addr, align 4, !dbg !6625
  %14 = bitcast %struct.__mavlink_battery_status_t* %packet to i8*, !dbg !6626
  call void @_mav_finalize_message_chan_send(i32 %13, i32 147, i8* %14, i8 zeroext 36, i8 zeroext 41, i8 zeroext -102), !dbg !6627
  ret void, !dbg !6628
}

declare dereferenceable(20) %"struct.AP_BattMonitor::cells"* @_ZNK14AP_BattMonitor17get_cell_voltagesEh(%class.AP_BattMonitor*, i8 zeroext) #4

declare zeroext i1 @_ZNK14AP_BattMonitor11has_currentEh(%class.AP_BattMonitor*, i8 zeroext) #4

declare float @_ZNK14AP_BattMonitor12current_ampsEh(%class.AP_BattMonitor*, i8 zeroext) #4

declare float @_ZNK14AP_BattMonitor12consumed_mahEh(%class.AP_BattMonitor*, i8 zeroext) #4

declare zeroext i1 @_ZNK14AP_BattMonitor19has_consumed_energyEh(%class.AP_BattMonitor*, i8 zeroext) #4

declare float @_ZNK14AP_BattMonitor11consumed_whEh(%class.AP_BattMonitor*, i8 zeroext) #4

; Function Attrs: nounwind uwtable
define zeroext i1 @_ZNK11GCS_MAVLINK19send_battery_statusEv(%class.GCS_MAVLINK* %this) #0 align 2 !dbg !6629 {
entry:
  %retval = alloca i1, align 1
  %this.addr = alloca %class.GCS_MAVLINK*, align 8
  %battery = alloca %class.AP_BattMonitor*, align 8
  %i = alloca i8, align 1
  store %class.GCS_MAVLINK* %this, %class.GCS_MAVLINK** %this.addr, align 8
  call void @llvm.dbg.declare(metadata %class.GCS_MAVLINK** %this.addr, metadata !6630, metadata !6032), !dbg !6631
  %this1 = load %class.GCS_MAVLINK*, %class.GCS_MAVLINK** %this.addr, align 8
  call void @llvm.dbg.declare(metadata %class.AP_BattMonitor** %battery, metadata !6632, metadata !6032), !dbg !6633
  %call = call dereferenceable(312) %class.AP_BattMonitor* @_ZN2AP7batteryEv(), !dbg !6634
  store %class.AP_BattMonitor* %call, %class.AP_BattMonitor** %battery, align 8, !dbg !6633
  call void @llvm.dbg.declare(metadata i8* %i, metadata !6635, metadata !6032), !dbg !6637
  store i8 0, i8* %i, align 1, !dbg !6637
  br label %for.cond, !dbg !6638

for.cond:                                         ; preds = %for.inc, %entry
  %0 = load i8, i8* %i, align 1, !dbg !6639
  %conv = zext i8 %0 to i32, !dbg !6639
  %1 = load %class.AP_BattMonitor*, %class.AP_BattMonitor** %battery, align 8, !dbg !6642
  %call2 = call zeroext i8 @_ZNK14AP_BattMonitor13num_instancesEv(%class.AP_BattMonitor* %1), !dbg !6643
  %conv3 = zext i8 %call2 to i32, !dbg !6642
  %cmp = icmp slt i32 %conv, %conv3, !dbg !6644
  br i1 %cmp, label %for.body, label %for.end, !dbg !6645

for.body:                                         ; preds = %for.cond
  %chan = getelementptr inbounds %class.GCS_MAVLINK, %class.GCS_MAVLINK* %this1, i32 0, i32 10, !dbg !6646
  %2 = load i32, i32* %chan, align 8, !dbg !6646
  %call4 = call zeroext i16 @_Z16comm_get_txspace17mavlink_channel_t(i32 %2), !dbg !6646
  %conv5 = zext i16 %call4 to i32, !dbg !6646
  %call6 = call zeroext i8 @_ZNK11GCS_MAVLINK15packet_overheadEv(%class.GCS_MAVLINK* %this1), !dbg !6649
  %conv7 = zext i8 %call6 to i32, !dbg !6646
  %add = add nsw i32 %conv7, 41, !dbg !6646
  %cmp8 = icmp slt i32 %conv5, %add, !dbg !6646
  br i1 %cmp8, label %if.then, label %if.end, !dbg !6651

if.then:                                          ; preds = %for.body
  store i1 false, i1* %retval, align 1, !dbg !6652
  br label %return, !dbg !6652

if.end:                                           ; preds = %for.body
  %3 = load %class.AP_BattMonitor*, %class.AP_BattMonitor** %battery, align 8, !dbg !6654
  %4 = load i8, i8* %i, align 1, !dbg !6655
  call void @_ZNK11GCS_MAVLINK19send_battery_statusERK14AP_BattMonitorh(%class.GCS_MAVLINK* %this1, %class.AP_BattMonitor* dereferenceable(312) %3, i8 zeroext %4), !dbg !6656
  br label %for.inc, !dbg !6657

for.inc:                                          ; preds = %if.end
  %5 = load i8, i8* %i, align 1, !dbg !6658
  %inc = add i8 %5, 1, !dbg !6658
  store i8 %inc, i8* %i, align 1, !dbg !6658
  br label %for.cond, !dbg !6660, !llvm.loop !6661

for.end:                                          ; preds = %for.cond
  store i1 true, i1* %retval, align 1, !dbg !6663
  br label %return, !dbg !6663

return:                                           ; preds = %for.end, %if.then
  %6 = load i1, i1* %retval, align 1, !dbg !6664
  ret i1 %6, !dbg !6664
}

declare dereferenceable(312) %class.AP_BattMonitor* @_ZN2AP7batteryEv() #4

; Function Attrs: nounwind uwtable
define linkonce_odr zeroext i8 @_ZNK14AP_BattMonitor13num_instancesEv(%class.AP_BattMonitor* %this) #0 comdat align 2 !dbg !6665 {
entry:
  %this.addr = alloca %class.AP_BattMonitor*, align 8
  store %class.AP_BattMonitor* %this, %class.AP_BattMonitor** %this.addr, align 8
  call void @llvm.dbg.declare(metadata %class.AP_BattMonitor** %this.addr, metadata !6670, metadata !6032), !dbg !6672
  %this1 = load %class.AP_BattMonitor*, %class.AP_BattMonitor** %this.addr, align 8
  %_num_instances = getelementptr inbounds %class.AP_BattMonitor, %class.AP_BattMonitor* %this1, i32 0, i32 5, !dbg !6673
  %0 = load i8, i8* %_num_instances, align 4, !dbg !6673
  ret i8 %0, !dbg !6674
}

declare zeroext i16 @_Z16comm_get_txspace17mavlink_channel_t(i32) #4

; Function Attrs: nounwind uwtable
define linkonce_odr zeroext i8 @_ZNK11GCS_MAVLINK15packet_overheadEv(%class.GCS_MAVLINK* %this) #0 comdat align 2 !dbg !6675 {
entry:
  %this.addr = alloca %class.GCS_MAVLINK*, align 8
  store %class.GCS_MAVLINK* %this, %class.GCS_MAVLINK** %this.addr, align 8
  call void @llvm.dbg.declare(metadata %class.GCS_MAVLINK** %this.addr, metadata !6676, metadata !6032), !dbg !6677
  %this1 = load %class.GCS_MAVLINK*, %class.GCS_MAVLINK** %this.addr, align 8
  %chan = getelementptr inbounds %class.GCS_MAVLINK, %class.GCS_MAVLINK* %this1, i32 0, i32 10, !dbg !6678
  %0 = load i32, i32* %chan, align 8, !dbg !6678
  %call = call zeroext i8 @_ZN11GCS_MAVLINK20packet_overhead_chanE17mavlink_channel_t(i32 %0), !dbg !6679
  ret i8 %call, !dbg !6680
}

; Function Attrs: nounwind uwtable
define void @_ZNK11GCS_MAVLINK20send_distance_sensorEPK22AP_RangeFinder_Backendh(%class.GCS_MAVLINK* %this, %class.AP_RangeFinder_Backend* %sensor, i8 zeroext %instance) #0 align 2 !dbg !6681 {
entry:
  %this.addr = alloca %class.GCS_MAVLINK*, align 8
  %sensor.addr = alloca %class.AP_RangeFinder_Backend*, align 8
  %instance.addr = alloca i8, align 1
  store %class.GCS_MAVLINK* %this, %class.GCS_MAVLINK** %this.addr, align 8
  call void @llvm.dbg.declare(metadata %class.GCS_MAVLINK** %this.addr, metadata !6682, metadata !6032), !dbg !6683
  store %class.AP_RangeFinder_Backend* %sensor, %class.AP_RangeFinder_Backend** %sensor.addr, align 8
  call void @llvm.dbg.declare(metadata %class.AP_RangeFinder_Backend** %sensor.addr, metadata !6684, metadata !6032), !dbg !6685
  store i8 %instance, i8* %instance.addr, align 1
  call void @llvm.dbg.declare(metadata i8* %instance.addr, metadata !6686, metadata !6032), !dbg !6687
  %this1 = load %class.GCS_MAVLINK*, %class.GCS_MAVLINK** %this.addr, align 8
  %0 = load %class.AP_RangeFinder_Backend*, %class.AP_RangeFinder_Backend** %sensor.addr, align 8, !dbg !6688
  %call = call zeroext i1 @_ZNK22AP_RangeFinder_Backend8has_dataEv(%class.AP_RangeFinder_Backend* %0), !dbg !6690
  br i1 %call, label %if.end, label %if.then, !dbg !6691

if.then:                                          ; preds = %entry
  br label %return, !dbg !6692

if.end:                                           ; preds = %entry
  %chan = getelementptr inbounds %class.GCS_MAVLINK, %class.GCS_MAVLINK* %this1, i32 0, i32 10, !dbg !6694
  %1 = load i32, i32* %chan, align 8, !dbg !6694
  %call2 = call i32 @_ZN6AP_HAL6millisEv(), !dbg !6695
  %2 = load %class.AP_RangeFinder_Backend*, %class.AP_RangeFinder_Backend** %sensor.addr, align 8, !dbg !6696
  %call3 = call signext i16 @_ZNK22AP_RangeFinder_Backend15min_distance_cmEv(%class.AP_RangeFinder_Backend* %2), !dbg !6697
  %3 = load %class.AP_RangeFinder_Backend*, %class.AP_RangeFinder_Backend** %sensor.addr, align 8, !dbg !6698
  %call4 = call signext i16 @_ZNK22AP_RangeFinder_Backend15max_distance_cmEv(%class.AP_RangeFinder_Backend* %3), !dbg !6699
  %4 = load %class.AP_RangeFinder_Backend*, %class.AP_RangeFinder_Backend** %sensor.addr, align 8, !dbg !6700
  %call5 = call zeroext i16 @_ZNK22AP_RangeFinder_Backend11distance_cmEv(%class.AP_RangeFinder_Backend* %4), !dbg !6701
  %5 = load %class.AP_RangeFinder_Backend*, %class.AP_RangeFinder_Backend** %sensor.addr, align 8, !dbg !6702
  %call6 = call i32 @_ZNK22AP_RangeFinder_Backend28get_mav_distance_sensor_typeEv(%class.AP_RangeFinder_Backend* %5), !dbg !6703
  %conv = trunc i32 %call6 to i8, !dbg !6702
  %6 = load i8, i8* %instance.addr, align 1, !dbg !6704
  %7 = load %class.AP_RangeFinder_Backend*, %class.AP_RangeFinder_Backend** %sensor.addr, align 8, !dbg !6705
  %call7 = call zeroext i8 @_ZNK22AP_RangeFinder_Backend11orientationEv(%class.AP_RangeFinder_Backend* %7), !dbg !6706
  call void @_ZL32mavlink_msg_distance_sensor_send17mavlink_channel_tjttthhhh(i32 %1, i32 %call2, i16 zeroext %call3, i16 zeroext %call4, i16 zeroext %call5, i8 zeroext %conv, i8 zeroext %6, i8 zeroext %call7, i8 zeroext 0), !dbg !6707
  br label %return, !dbg !6708

return:                                           ; preds = %if.end, %if.then
  ret void, !dbg !6709
}

; Function Attrs: nounwind uwtable
define linkonce_odr zeroext i1 @_ZNK22AP_RangeFinder_Backend8has_dataEv(%class.AP_RangeFinder_Backend* %this) #0 comdat align 2 !dbg !6711 {
entry:
  %this.addr = alloca %class.AP_RangeFinder_Backend*, align 8
  store %class.AP_RangeFinder_Backend* %this, %class.AP_RangeFinder_Backend** %this.addr, align 8
  call void @llvm.dbg.declare(metadata %class.AP_RangeFinder_Backend** %this.addr, metadata !6716, metadata !6032), !dbg !6717
  %this1 = load %class.AP_RangeFinder_Backend*, %class.AP_RangeFinder_Backend** %this.addr, align 8
  %state = getelementptr inbounds %class.AP_RangeFinder_Backend, %class.AP_RangeFinder_Backend* %this1, i32 0, i32 1, !dbg !6718
  %ref = load %"struct.RangeFinder::RangeFinder_State"*, %"struct.RangeFinder::RangeFinder_State"** %state, align 8, !dbg !6718
  %status = getelementptr inbounds %"struct.RangeFinder::RangeFinder_State", %"struct.RangeFinder::RangeFinder_State"* %ref, i32 0, i32 2, !dbg !6719
  %0 = load i32, i32* %status, align 4, !dbg !6719
  %cmp = icmp ne i32 %0, 0, !dbg !6720
  br i1 %cmp, label %land.rhs, label %land.end, !dbg !6721

land.rhs:                                         ; preds = %entry
  %state2 = getelementptr inbounds %class.AP_RangeFinder_Backend, %class.AP_RangeFinder_Backend* %this1, i32 0, i32 1, !dbg !6722
  %ref3 = load %"struct.RangeFinder::RangeFinder_State"*, %"struct.RangeFinder::RangeFinder_State"** %state2, align 8, !dbg !6722
  %status4 = getelementptr inbounds %"struct.RangeFinder::RangeFinder_State", %"struct.RangeFinder::RangeFinder_State"* %ref3, i32 0, i32 2, !dbg !6723
  %1 = load i32, i32* %status4, align 4, !dbg !6723
  %cmp5 = icmp ne i32 %1, 1, !dbg !6724
  br label %land.end

land.end:                                         ; preds = %land.rhs, %entry
  %2 = phi i1 [ false, %entry ], [ %cmp5, %land.rhs ]
  ret i1 %2, !dbg !6725
}

; Function Attrs: inlinehint nounwind uwtable
define internal void @_ZL32mavlink_msg_distance_sensor_send17mavlink_channel_tjttthhhh(i32 %chan, i32 %time_boot_ms, i16 zeroext %min_distance, i16 zeroext %max_distance, i16 zeroext %current_distance, i8 zeroext %type, i8 zeroext %id, i8 zeroext %orientation, i8 zeroext %covariance) #3 !dbg !6727 {
entry:
  %chan.addr = alloca i32, align 4
  %time_boot_ms.addr = alloca i32, align 4
  %min_distance.addr = alloca i16, align 2
  %max_distance.addr = alloca i16, align 2
  %current_distance.addr = alloca i16, align 2
  %type.addr = alloca i8, align 1
  %id.addr = alloca i8, align 1
  %orientation.addr = alloca i8, align 1
  %covariance.addr = alloca i8, align 1
  %packet = alloca %struct.__mavlink_distance_sensor_t, align 1
  store i32 %chan, i32* %chan.addr, align 4
  call void @llvm.dbg.declare(metadata i32* %chan.addr, metadata !6731, metadata !6032), !dbg !6732
  store i32 %time_boot_ms, i32* %time_boot_ms.addr, align 4
  call void @llvm.dbg.declare(metadata i32* %time_boot_ms.addr, metadata !6733, metadata !6032), !dbg !6734
  store i16 %min_distance, i16* %min_distance.addr, align 2
  call void @llvm.dbg.declare(metadata i16* %min_distance.addr, metadata !6735, metadata !6032), !dbg !6736
  store i16 %max_distance, i16* %max_distance.addr, align 2
  call void @llvm.dbg.declare(metadata i16* %max_distance.addr, metadata !6737, metadata !6032), !dbg !6738
  store i16 %current_distance, i16* %current_distance.addr, align 2
  call void @llvm.dbg.declare(metadata i16* %current_distance.addr, metadata !6739, metadata !6032), !dbg !6740
  store i8 %type, i8* %type.addr, align 1
  call void @llvm.dbg.declare(metadata i8* %type.addr, metadata !6741, metadata !6032), !dbg !6742
  store i8 %id, i8* %id.addr, align 1
  call void @llvm.dbg.declare(metadata i8* %id.addr, metadata !6743, metadata !6032), !dbg !6744
  store i8 %orientation, i8* %orientation.addr, align 1
  call void @llvm.dbg.declare(metadata i8* %orientation.addr, metadata !6745, metadata !6032), !dbg !6746
  store i8 %covariance, i8* %covariance.addr, align 1
  call void @llvm.dbg.declare(metadata i8* %covariance.addr, metadata !6747, metadata !6032), !dbg !6748
  call void @llvm.dbg.declare(metadata %struct.__mavlink_distance_sensor_t* %packet, metadata !6749, metadata !6032), !dbg !6761
  %0 = load i32, i32* %time_boot_ms.addr, align 4, !dbg !6762
  %time_boot_ms1 = getelementptr inbounds %struct.__mavlink_distance_sensor_t, %struct.__mavlink_distance_sensor_t* %packet, i32 0, i32 0, !dbg !6763
  store i32 %0, i32* %time_boot_ms1, align 1, !dbg !6764
  %1 = load i16, i16* %min_distance.addr, align 2, !dbg !6765
  %min_distance2 = getelementptr inbounds %struct.__mavlink_distance_sensor_t, %struct.__mavlink_distance_sensor_t* %packet, i32 0, i32 1, !dbg !6766
  store i16 %1, i16* %min_distance2, align 1, !dbg !6767
  %2 = load i16, i16* %max_distance.addr, align 2, !dbg !6768
  %max_distance3 = getelementptr inbounds %struct.__mavlink_distance_sensor_t, %struct.__mavlink_distance_sensor_t* %packet, i32 0, i32 2, !dbg !6769
  store i16 %2, i16* %max_distance3, align 1, !dbg !6770
  %3 = load i16, i16* %current_distance.addr, align 2, !dbg !6771
  %current_distance4 = getelementptr inbounds %struct.__mavlink_distance_sensor_t, %struct.__mavlink_distance_sensor_t* %packet, i32 0, i32 3, !dbg !6772
  store i16 %3, i16* %current_distance4, align 1, !dbg !6773
  %4 = load i8, i8* %type.addr, align 1, !dbg !6774
  %type5 = getelementptr inbounds %struct.__mavlink_distance_sensor_t, %struct.__mavlink_distance_sensor_t* %packet, i32 0, i32 4, !dbg !6775
  store i8 %4, i8* %type5, align 1, !dbg !6776
  %5 = load i8, i8* %id.addr, align 1, !dbg !6777
  %id6 = getelementptr inbounds %struct.__mavlink_distance_sensor_t, %struct.__mavlink_distance_sensor_t* %packet, i32 0, i32 5, !dbg !6778
  store i8 %5, i8* %id6, align 1, !dbg !6779
  %6 = load i8, i8* %orientation.addr, align 1, !dbg !6780
  %orientation7 = getelementptr inbounds %struct.__mavlink_distance_sensor_t, %struct.__mavlink_distance_sensor_t* %packet, i32 0, i32 6, !dbg !6781
  store i8 %6, i8* %orientation7, align 1, !dbg !6782
  %7 = load i8, i8* %covariance.addr, align 1, !dbg !6783
  %covariance8 = getelementptr inbounds %struct.__mavlink_distance_sensor_t, %struct.__mavlink_distance_sensor_t* %packet, i32 0, i32 7, !dbg !6784
  store i8 %7, i8* %covariance8, align 1, !dbg !6785
  %8 = load i32, i32* %chan.addr, align 4, !dbg !6786
  %9 = bitcast %struct.__mavlink_distance_sensor_t* %packet to i8*, !dbg !6787
  call void @_mav_finalize_message_chan_send(i32 %8, i32 132, i8* %9, i8 zeroext 14, i8 zeroext 14, i8 zeroext 85), !dbg !6788
  ret void, !dbg !6789
}

declare i32 @_ZN6AP_HAL6millisEv() #4

; Function Attrs: nounwind uwtable
define linkonce_odr signext i16 @_ZNK22AP_RangeFinder_Backend15min_distance_cmEv(%class.AP_RangeFinder_Backend* %this) #0 comdat align 2 !dbg !6790 {
entry:
  %this.addr = alloca %class.AP_RangeFinder_Backend*, align 8
  store %class.AP_RangeFinder_Backend* %this, %class.AP_RangeFinder_Backend** %this.addr, align 8
  call void @llvm.dbg.declare(metadata %class.AP_RangeFinder_Backend** %this.addr, metadata !6794, metadata !6032), !dbg !6795
  %this1 = load %class.AP_RangeFinder_Backend*, %class.AP_RangeFinder_Backend** %this.addr, align 8
  %state = getelementptr inbounds %class.AP_RangeFinder_Backend, %class.AP_RangeFinder_Backend* %this1, i32 0, i32 1, !dbg !6796
  %ref = load %"struct.RangeFinder::RangeFinder_State"*, %"struct.RangeFinder::RangeFinder_State"** %state, align 8, !dbg !6796
  %min_distance_cm = getelementptr inbounds %"struct.RangeFinder::RangeFinder_State", %"struct.RangeFinder::RangeFinder_State"* %ref, i32 0, i32 15, !dbg !6797
  %call = call dereferenceable(2) i16* @_ZNK9AP_ParamTIsL11ap_var_type2EEcvRKsEv(%class.AP_ParamT.4* %min_distance_cm), !dbg !6796
  %0 = load i16, i16* %call, align 2, !dbg !6796
  ret i16 %0, !dbg !6798
}

; Function Attrs: nounwind uwtable
define linkonce_odr signext i16 @_ZNK22AP_RangeFinder_Backend15max_distance_cmEv(%class.AP_RangeFinder_Backend* %this) #0 comdat align 2 !dbg !6799 {
entry:
  %this.addr = alloca %class.AP_RangeFinder_Backend*, align 8
  store %class.AP_RangeFinder_Backend* %this, %class.AP_RangeFinder_Backend** %this.addr, align 8
  call void @llvm.dbg.declare(metadata %class.AP_RangeFinder_Backend** %this.addr, metadata !6801, metadata !6032), !dbg !6802
  %this1 = load %class.AP_RangeFinder_Backend*, %class.AP_RangeFinder_Backend** %this.addr, align 8
  %state = getelementptr inbounds %class.AP_RangeFinder_Backend, %class.AP_RangeFinder_Backend* %this1, i32 0, i32 1, !dbg !6803
  %ref = load %"struct.RangeFinder::RangeFinder_State"*, %"struct.RangeFinder::RangeFinder_State"** %state, align 8, !dbg !6803
  %max_distance_cm = getelementptr inbounds %"struct.RangeFinder::RangeFinder_State", %"struct.RangeFinder::RangeFinder_State"* %ref, i32 0, i32 16, !dbg !6804
  %call = call dereferenceable(2) i16* @_ZNK9AP_ParamTIsL11ap_var_type2EEcvRKsEv(%class.AP_ParamT.4* %max_distance_cm), !dbg !6803
  %0 = load i16, i16* %call, align 2, !dbg !6803
  ret i16 %0, !dbg !6805
}

; Function Attrs: nounwind uwtable
define linkonce_odr zeroext i16 @_ZNK22AP_RangeFinder_Backend11distance_cmEv(%class.AP_RangeFinder_Backend* %this) #0 comdat align 2 !dbg !6806 {
entry:
  %this.addr = alloca %class.AP_RangeFinder_Backend*, align 8
  store %class.AP_RangeFinder_Backend* %this, %class.AP_RangeFinder_Backend** %this.addr, align 8
  call void @llvm.dbg.declare(metadata %class.AP_RangeFinder_Backend** %this.addr, metadata !6810, metadata !6032), !dbg !6811
  %this1 = load %class.AP_RangeFinder_Backend*, %class.AP_RangeFinder_Backend** %this.addr, align 8
  %state = getelementptr inbounds %class.AP_RangeFinder_Backend, %class.AP_RangeFinder_Backend* %this1, i32 0, i32 1, !dbg !6812
  %ref = load %"struct.RangeFinder::RangeFinder_State"*, %"struct.RangeFinder::RangeFinder_State"** %state, align 8, !dbg !6812
  %distance_cm = getelementptr inbounds %"struct.RangeFinder::RangeFinder_State", %"struct.RangeFinder::RangeFinder_State"* %ref, i32 0, i32 0, !dbg !6813
  %0 = load i16, i16* %distance_cm, align 8, !dbg !6813
  ret i16 %0, !dbg !6814
}

; Function Attrs: nounwind uwtable
define linkonce_odr i32 @_ZNK22AP_RangeFinder_Backend28get_mav_distance_sensor_typeEv(%class.AP_RangeFinder_Backend* %this) #0 comdat align 2 !dbg !6815 {
entry:
  %retval = alloca i32, align 4
  %this.addr = alloca %class.AP_RangeFinder_Backend*, align 8
  store %class.AP_RangeFinder_Backend* %this, %class.AP_RangeFinder_Backend** %this.addr, align 8
  call void @llvm.dbg.declare(metadata %class.AP_RangeFinder_Backend** %this.addr, metadata !6819, metadata !6032), !dbg !6820
  %this1 = load %class.AP_RangeFinder_Backend*, %class.AP_RangeFinder_Backend** %this.addr, align 8
  %state = getelementptr inbounds %class.AP_RangeFinder_Backend, %class.AP_RangeFinder_Backend* %this1, i32 0, i32 1, !dbg !6821
  %ref = load %"struct.RangeFinder::RangeFinder_State"*, %"struct.RangeFinder::RangeFinder_State"** %state, align 8, !dbg !6821
  %type = getelementptr inbounds %"struct.RangeFinder::RangeFinder_State", %"struct.RangeFinder::RangeFinder_State"* %ref, i32 0, i32 7, !dbg !6823
  %call = call dereferenceable(1) i8* @_ZNK9AP_ParamTIaL11ap_var_type1EEcvRKaEv(%class.AP_ParamT* %type), !dbg !6821
  %0 = load i8, i8* %call, align 1, !dbg !6821
  %conv = sext i8 %0 to i32, !dbg !6821
  %cmp = icmp eq i32 %conv, 0, !dbg !6824
  br i1 %cmp, label %if.then, label %if.end, !dbg !6825

if.then:                                          ; preds = %entry
  store i32 4, i32* %retval, align 4, !dbg !6826
  br label %return, !dbg !6826

if.end:                                           ; preds = %entry
  %1 = bitcast %class.AP_RangeFinder_Backend* %this1 to i32 (%class.AP_RangeFinder_Backend*)***, !dbg !6828
  %vtable = load i32 (%class.AP_RangeFinder_Backend*)**, i32 (%class.AP_RangeFinder_Backend*)*** %1, align 8, !dbg !6828
  %vfn = getelementptr inbounds i32 (%class.AP_RangeFinder_Backend*)*, i32 (%class.AP_RangeFinder_Backend*)** %vtable, i64 4, !dbg !6828
  %2 = load i32 (%class.AP_RangeFinder_Backend*)*, i32 (%class.AP_RangeFinder_Backend*)** %vfn, align 8, !dbg !6828
  %call2 = call i32 %2(%class.AP_RangeFinder_Backend* %this1), !dbg !6828
  store i32 %call2, i32* %retval, align 4, !dbg !6829
  br label %return, !dbg !6829

return:                                           ; preds = %if.end, %if.then
  %3 = load i32, i32* %retval, align 4, !dbg !6830
  ret i32 %3, !dbg !6830
}

; Function Attrs: nounwind uwtable
define linkonce_odr zeroext i8 @_ZNK22AP_RangeFinder_Backend11orientationEv(%class.AP_RangeFinder_Backend* %this) #0 comdat align 2 !dbg !6831 {
entry:
  %this.addr = alloca %class.AP_RangeFinder_Backend*, align 8
  store %class.AP_RangeFinder_Backend* %this, %class.AP_RangeFinder_Backend** %this.addr, align 8
  call void @llvm.dbg.declare(metadata %class.AP_RangeFinder_Backend** %this.addr, metadata !6835, metadata !6032), !dbg !6836
  %this1 = load %class.AP_RangeFinder_Backend*, %class.AP_RangeFinder_Backend** %this.addr, align 8
  %state = getelementptr inbounds %class.AP_RangeFinder_Backend, %class.AP_RangeFinder_Backend* %this1, i32 0, i32 1, !dbg !6837
  %ref = load %"struct.RangeFinder::RangeFinder_State"*, %"struct.RangeFinder::RangeFinder_State"** %state, align 8, !dbg !6837
  %orientation = getelementptr inbounds %"struct.RangeFinder::RangeFinder_State", %"struct.RangeFinder::RangeFinder_State"* %ref, i32 0, i32 20, !dbg !6838
  %call = call dereferenceable(1) i8* @_ZNK9AP_ParamTIaL11ap_var_type1EE3getEv(%class.AP_ParamT* %orientation), !dbg !6839
  %0 = load i8, i8* %call, align 1, !dbg !6839
  ret i8 %0, !dbg !6840
}

; Function Attrs: nounwind uwtable
define zeroext i1 @_ZNK11GCS_MAVLINK20send_distance_sensorEv(%class.GCS_MAVLINK* %this) #0 align 2 !dbg !6841 {
entry:
  %retval = alloca i1, align 1
  %this.addr = alloca %class.GCS_MAVLINK*, align 8
  %rangefinder = alloca %class.RangeFinder*, align 8
  %filter_possible_proximity_sensors = alloca i8, align 1
  %proximity = alloca %class.AP_Proximity*, align 8
  %i = alloca i8, align 1
  %i13 = alloca i8, align 1
  %sensor = alloca %class.AP_RangeFinder_Backend*, align 8
  %orient = alloca i8, align 1
  store %class.GCS_MAVLINK* %this, %class.GCS_MAVLINK** %this.addr, align 8
  call void @llvm.dbg.declare(metadata %class.GCS_MAVLINK** %this.addr, metadata !6842, metadata !6032), !dbg !6843
  %this1 = load %class.GCS_MAVLINK*, %class.GCS_MAVLINK** %this.addr, align 8
  call void @llvm.dbg.declare(metadata %class.RangeFinder** %rangefinder, metadata !6844, metadata !6032), !dbg !6845
  %call = call %class.RangeFinder* @_ZN11RangeFinder13get_singletonEv(), !dbg !6846
  store %class.RangeFinder* %call, %class.RangeFinder** %rangefinder, align 8, !dbg !6845
  %0 = load %class.RangeFinder*, %class.RangeFinder** %rangefinder, align 8, !dbg !6847
  %cmp = icmp eq %class.RangeFinder* %0, null, !dbg !6849
  br i1 %cmp, label %if.then, label %if.end, !dbg !6850

if.then:                                          ; preds = %entry
  store i1 true, i1* %retval, align 1, !dbg !6851
  br label %return, !dbg !6851

if.end:                                           ; preds = %entry
  call void @llvm.dbg.declare(metadata i8* %filter_possible_proximity_sensors, metadata !6853, metadata !6032), !dbg !6854
  store i8 0, i8* %filter_possible_proximity_sensors, align 1, !dbg !6854
  call void @llvm.dbg.declare(metadata %class.AP_Proximity** %proximity, metadata !6855, metadata !6032), !dbg !6856
  %call2 = call %class.AP_Proximity* @_ZN12AP_Proximity13get_singletonEv(), !dbg !6857
  store %class.AP_Proximity* %call2, %class.AP_Proximity** %proximity, align 8, !dbg !6856
  %1 = load %class.AP_Proximity*, %class.AP_Proximity** %proximity, align 8, !dbg !6858
  %cmp3 = icmp ne %class.AP_Proximity* %1, null, !dbg !6860
  br i1 %cmp3, label %if.then4, label %if.end12, !dbg !6861

if.then4:                                         ; preds = %if.end
  call void @llvm.dbg.declare(metadata i8* %i, metadata !6862, metadata !6032), !dbg !6865
  store i8 0, i8* %i, align 1, !dbg !6865
  br label %for.cond, !dbg !6866

for.cond:                                         ; preds = %for.inc, %if.then4
  %2 = load i8, i8* %i, align 1, !dbg !6867
  %conv = zext i8 %2 to i32, !dbg !6867
  %3 = load %class.AP_Proximity*, %class.AP_Proximity** %proximity, align 8, !dbg !6870
  %call5 = call zeroext i8 @_ZNK12AP_Proximity11num_sensorsEv(%class.AP_Proximity* %3), !dbg !6871
  %conv6 = zext i8 %call5 to i32, !dbg !6870
  %cmp7 = icmp slt i32 %conv, %conv6, !dbg !6872
  br i1 %cmp7, label %for.body, label %if.end12, !dbg !6873

for.body:                                         ; preds = %for.cond
  %4 = load %class.AP_Proximity*, %class.AP_Proximity** %proximity, align 8, !dbg !6874
  %5 = load i8, i8* %i, align 1, !dbg !6877
  %call8 = call i32 @_ZNK12AP_Proximity8get_typeEh(%class.AP_Proximity* %4, i8 zeroext %5), !dbg !6878
  %cmp9 = icmp eq i32 %call8, 4, !dbg !6879
  br i1 %cmp9, label %if.then10, label %if.end11, !dbg !6880

if.then10:                                        ; preds = %for.body
  store i8 1, i8* %filter_possible_proximity_sensors, align 1, !dbg !6881
  br label %if.end11, !dbg !6883

if.end11:                                         ; preds = %if.then10, %for.body
  br label %for.inc, !dbg !6884

for.inc:                                          ; preds = %if.end11
  %6 = load i8, i8* %i, align 1, !dbg !6885
  %inc = add i8 %6, 1, !dbg !6885
  store i8 %inc, i8* %i, align 1, !dbg !6885
  br label %for.cond, !dbg !6887, !llvm.loop !6888

if.end12:                                         ; preds = %for.cond, %if.end
  call void @llvm.dbg.declare(metadata i8* %i13, metadata !6890, metadata !6032), !dbg !6892
  store i8 0, i8* %i13, align 1, !dbg !6892
  br label %for.cond14, !dbg !6893

for.cond14:                                       ; preds = %for.inc36, %if.end12
  %7 = load i8, i8* %i13, align 1, !dbg !6894
  %conv15 = zext i8 %7 to i32, !dbg !6894
  %cmp16 = icmp slt i32 %conv15, 2, !dbg !6897
  br i1 %cmp16, label %for.body17, label %for.end, !dbg !6898

for.body17:                                       ; preds = %for.cond14
  %chan = getelementptr inbounds %class.GCS_MAVLINK, %class.GCS_MAVLINK* %this1, i32 0, i32 10, !dbg !6899
  %8 = load i32, i32* %chan, align 8, !dbg !6899
  %call18 = call zeroext i16 @_Z16comm_get_txspace17mavlink_channel_t(i32 %8), !dbg !6899
  %conv19 = zext i16 %call18 to i32, !dbg !6899
  %call20 = call zeroext i8 @_ZNK11GCS_MAVLINK15packet_overheadEv(%class.GCS_MAVLINK* %this1), !dbg !6902
  %conv21 = zext i8 %call20 to i32, !dbg !6899
  %add = add nsw i32 %conv21, 14, !dbg !6899
  %cmp22 = icmp slt i32 %conv19, %add, !dbg !6899
  br i1 %cmp22, label %if.then23, label %if.end24, !dbg !6904

if.then23:                                        ; preds = %for.body17
  store i1 false, i1* %retval, align 1, !dbg !6905
  br label %return, !dbg !6905

if.end24:                                         ; preds = %for.body17
  call void @llvm.dbg.declare(metadata %class.AP_RangeFinder_Backend** %sensor, metadata !6907, metadata !6032), !dbg !6908
  %9 = load %class.RangeFinder*, %class.RangeFinder** %rangefinder, align 8, !dbg !6909
  %10 = load i8, i8* %i13, align 1, !dbg !6910
  %call25 = call %class.AP_RangeFinder_Backend* @_ZNK11RangeFinder11get_backendEh(%class.RangeFinder* %9, i8 zeroext %10), !dbg !6911
  store %class.AP_RangeFinder_Backend* %call25, %class.AP_RangeFinder_Backend** %sensor, align 8, !dbg !6908
  %11 = load %class.AP_RangeFinder_Backend*, %class.AP_RangeFinder_Backend** %sensor, align 8, !dbg !6912
  %cmp26 = icmp eq %class.AP_RangeFinder_Backend* %11, null, !dbg !6914
  br i1 %cmp26, label %if.then27, label %if.end28, !dbg !6915

if.then27:                                        ; preds = %if.end24
  br label %for.inc36, !dbg !6916

if.end28:                                         ; preds = %if.end24
  call void @llvm.dbg.declare(metadata i8* %orient, metadata !6918, metadata !6032), !dbg !6919
  %12 = load %class.AP_RangeFinder_Backend*, %class.AP_RangeFinder_Backend** %sensor, align 8, !dbg !6920
  %call29 = call zeroext i8 @_ZNK22AP_RangeFinder_Backend11orientationEv(%class.AP_RangeFinder_Backend* %12), !dbg !6921
  store i8 %call29, i8* %orient, align 1, !dbg !6919
  %13 = load i8, i8* %filter_possible_proximity_sensors, align 1, !dbg !6922
  %tobool = trunc i8 %13 to i1, !dbg !6922
  br i1 %tobool, label %lor.lhs.false, label %if.then34, !dbg !6924

lor.lhs.false:                                    ; preds = %if.end28
  %14 = load i8, i8* %orient, align 1, !dbg !6925
  %conv30 = zext i8 %14 to i32, !dbg !6925
  %cmp31 = icmp sgt i32 %conv30, 7, !dbg !6926
  br i1 %cmp31, label %land.lhs.true, label %if.end35, !dbg !6927

land.lhs.true:                                    ; preds = %lor.lhs.false
  %15 = load i8, i8* %orient, align 1, !dbg !6928
  %conv32 = zext i8 %15 to i32, !dbg !6928
  %cmp33 = icmp ne i32 %conv32, 24, !dbg !6930
  br i1 %cmp33, label %if.then34, label %if.end35, !dbg !6931

if.then34:                                        ; preds = %land.lhs.true, %if.end28
  %16 = load %class.AP_RangeFinder_Backend*, %class.AP_RangeFinder_Backend** %sensor, align 8, !dbg !6933
  %17 = load i8, i8* %i13, align 1, !dbg !6935
  call void @_ZNK11GCS_MAVLINK20send_distance_sensorEPK22AP_RangeFinder_Backendh(%class.GCS_MAVLINK* %this1, %class.AP_RangeFinder_Backend* %16, i8 zeroext %17), !dbg !6936
  br label %if.end35, !dbg !6937

if.end35:                                         ; preds = %if.then34, %land.lhs.true, %lor.lhs.false
  br label %for.inc36, !dbg !6938

for.inc36:                                        ; preds = %if.end35, %if.then27
  %18 = load i8, i8* %i13, align 1, !dbg !6939
  %inc37 = add i8 %18, 1, !dbg !6939
  store i8 %inc37, i8* %i13, align 1, !dbg !6939
  br label %for.cond14, !dbg !6941, !llvm.loop !6942

for.end:                                          ; preds = %for.cond14
  store i1 true, i1* %retval, align 1, !dbg !6944
  br label %return, !dbg !6944

return:                                           ; preds = %for.end, %if.then23, %if.then
  %19 = load i1, i1* %retval, align 1, !dbg !6945
  ret i1 %19, !dbg !6945
}

; Function Attrs: nounwind uwtable
define linkonce_odr %class.RangeFinder* @_ZN11RangeFinder13get_singletonEv() #0 comdat align 2 !dbg !6946 {
entry:
  %0 = load %class.RangeFinder*, %class.RangeFinder** @_ZN11RangeFinder10_singletonE, align 8, !dbg !6947
  ret %class.RangeFinder* %0, !dbg !6948
}

; Function Attrs: nounwind uwtable
define linkonce_odr %class.AP_Proximity* @_ZN12AP_Proximity13get_singletonEv() #0 comdat align 2 !dbg !6949 {
entry:
  %0 = load %class.AP_Proximity*, %class.AP_Proximity** @_ZN12AP_Proximity10_singletonE, align 8, !dbg !6950
  ret %class.AP_Proximity* %0, !dbg !6951
}

; Function Attrs: nounwind uwtable
define linkonce_odr zeroext i8 @_ZNK12AP_Proximity11num_sensorsEv(%class.AP_Proximity* %this) #0 comdat align 2 !dbg !6952 {
entry:
  %this.addr = alloca %class.AP_Proximity*, align 8
  store %class.AP_Proximity* %this, %class.AP_Proximity** %this.addr, align 8
  call void @llvm.dbg.declare(metadata %class.AP_Proximity** %this.addr, metadata !6953, metadata !6032), !dbg !6955
  %this1 = load %class.AP_Proximity*, %class.AP_Proximity** %this.addr, align 8
  %num_instances = getelementptr inbounds %class.AP_Proximity, %class.AP_Proximity* %this1, i32 0, i32 3, !dbg !6956
  %bf.load = load i8, i8* %num_instances, align 8, !dbg !6956
  %bf.lshr = lshr i8 %bf.load, 3, !dbg !6956
  %bf.clear = and i8 %bf.lshr, 7, !dbg !6956
  ret i8 %bf.clear, !dbg !6957
}

declare i32 @_ZNK12AP_Proximity8get_typeEh(%class.AP_Proximity*, i8 zeroext) #4

declare %class.AP_RangeFinder_Backend* @_ZNK11RangeFinder11get_backendEh(%class.RangeFinder*, i8 zeroext) #4

; Function Attrs: nounwind uwtable
define void @_ZNK11GCS_MAVLINK25send_rangefinder_downwardEv(%class.GCS_MAVLINK* %this) #0 align 2 !dbg !6958 {
entry:
  %this.addr = alloca %class.GCS_MAVLINK*, align 8
  %rangefinder = alloca %class.RangeFinder*, align 8
  %s = alloca %class.AP_RangeFinder_Backend*, align 8
  store %class.GCS_MAVLINK* %this, %class.GCS_MAVLINK** %this.addr, align 8
  call void @llvm.dbg.declare(metadata %class.GCS_MAVLINK** %this.addr, metadata !6959, metadata !6032), !dbg !6960
  %this1 = load %class.GCS_MAVLINK*, %class.GCS_MAVLINK** %this.addr, align 8
  call void @llvm.dbg.declare(metadata %class.RangeFinder** %rangefinder, metadata !6961, metadata !6032), !dbg !6962
  %call = call %class.RangeFinder* @_ZN11RangeFinder13get_singletonEv(), !dbg !6963
  store %class.RangeFinder* %call, %class.RangeFinder** %rangefinder, align 8, !dbg !6962
  %0 = load %class.RangeFinder*, %class.RangeFinder** %rangefinder, align 8, !dbg !6964
  %cmp = icmp eq %class.RangeFinder* %0, null, !dbg !6966
  br i1 %cmp, label %if.then, label %if.end, !dbg !6967

if.then:                                          ; preds = %entry
  br label %return, !dbg !6968

if.end:                                           ; preds = %entry
  call void @llvm.dbg.declare(metadata %class.AP_RangeFinder_Backend** %s, metadata !6970, metadata !6032), !dbg !6971
  %1 = load %class.RangeFinder*, %class.RangeFinder** %rangefinder, align 8, !dbg !6972
  %call2 = call %class.AP_RangeFinder_Backend* @_ZNK11RangeFinder13find_instanceE8Rotation(%class.RangeFinder* %1, i8 zeroext 25), !dbg !6973
  store %class.AP_RangeFinder_Backend* %call2, %class.AP_RangeFinder_Backend** %s, align 8, !dbg !6971
  %2 = load %class.AP_RangeFinder_Backend*, %class.AP_RangeFinder_Backend** %s, align 8, !dbg !6974
  %cmp3 = icmp eq %class.AP_RangeFinder_Backend* %2, null, !dbg !6976
  br i1 %cmp3, label %if.then4, label %if.end5, !dbg !6977

if.then4:                                         ; preds = %if.end
  br label %return, !dbg !6978

if.end5:                                          ; preds = %if.end
  %chan = getelementptr inbounds %class.GCS_MAVLINK, %class.GCS_MAVLINK* %this1, i32 0, i32 10, !dbg !6980
  %3 = load i32, i32* %chan, align 8, !dbg !6980
  %4 = load %class.AP_RangeFinder_Backend*, %class.AP_RangeFinder_Backend** %s, align 8, !dbg !6981
  %call6 = call zeroext i16 @_ZNK22AP_RangeFinder_Backend11distance_cmEv(%class.AP_RangeFinder_Backend* %4), !dbg !6982
  %conv = zext i16 %call6 to i32, !dbg !6981
  %conv7 = sitofp i32 %conv to float, !dbg !6981
  %mul = fmul float %conv7, 0x3F847AE140000000, !dbg !6983
  %5 = load %class.AP_RangeFinder_Backend*, %class.AP_RangeFinder_Backend** %s, align 8, !dbg !6984
  %call8 = call zeroext i16 @_ZNK22AP_RangeFinder_Backend10voltage_mvEv(%class.AP_RangeFinder_Backend* %5), !dbg !6985
  %conv9 = zext i16 %call8 to i32, !dbg !6984
  %conv10 = sitofp i32 %conv9 to float, !dbg !6984
  %mul11 = fmul float %conv10, 0x3F50624DE0000000, !dbg !6986
  call void @_ZL28mavlink_msg_rangefinder_send17mavlink_channel_tff(i32 %3, float %mul, float %mul11), !dbg !6987
  br label %return, !dbg !6988

return:                                           ; preds = %if.end5, %if.then4, %if.then
  ret void, !dbg !6989
}

declare %class.AP_RangeFinder_Backend* @_ZNK11RangeFinder13find_instanceE8Rotation(%class.RangeFinder*, i8 zeroext) #4

; Function Attrs: inlinehint nounwind uwtable
define internal void @_ZL28mavlink_msg_rangefinder_send17mavlink_channel_tff(i32 %chan, float %distance, float %voltage) #3 !dbg !6991 {
entry:
  %chan.addr = alloca i32, align 4
  %distance.addr = alloca float, align 4
  %voltage.addr = alloca float, align 4
  %packet = alloca %struct.__mavlink_rangefinder_t, align 1
  store i32 %chan, i32* %chan.addr, align 4
  call void @llvm.dbg.declare(metadata i32* %chan.addr, metadata !6995, metadata !6032), !dbg !6996
  store float %distance, float* %distance.addr, align 4
  call void @llvm.dbg.declare(metadata float* %distance.addr, metadata !6997, metadata !6032), !dbg !6998
  store float %voltage, float* %voltage.addr, align 4
  call void @llvm.dbg.declare(metadata float* %voltage.addr, metadata !6999, metadata !6032), !dbg !7000
  call void @llvm.dbg.declare(metadata %struct.__mavlink_rangefinder_t* %packet, metadata !7001, metadata !6032), !dbg !7007
  %0 = load float, float* %distance.addr, align 4, !dbg !7008
  %distance1 = getelementptr inbounds %struct.__mavlink_rangefinder_t, %struct.__mavlink_rangefinder_t* %packet, i32 0, i32 0, !dbg !7009
  store float %0, float* %distance1, align 1, !dbg !7010
  %1 = load float, float* %voltage.addr, align 4, !dbg !7011
  %voltage2 = getelementptr inbounds %struct.__mavlink_rangefinder_t, %struct.__mavlink_rangefinder_t* %packet, i32 0, i32 1, !dbg !7012
  store float %1, float* %voltage2, align 1, !dbg !7013
  %2 = load i32, i32* %chan.addr, align 4, !dbg !7014
  %3 = bitcast %struct.__mavlink_rangefinder_t* %packet to i8*, !dbg !7015
  call void @_mav_finalize_message_chan_send(i32 %2, i32 173, i8* %3, i8 zeroext 8, i8 zeroext 8, i8 zeroext 83), !dbg !7016
  ret void, !dbg !7017
}

; Function Attrs: nounwind uwtable
define linkonce_odr zeroext i16 @_ZNK22AP_RangeFinder_Backend10voltage_mvEv(%class.AP_RangeFinder_Backend* %this) #0 comdat align 2 !dbg !7018 {
entry:
  %this.addr = alloca %class.AP_RangeFinder_Backend*, align 8
  store %class.AP_RangeFinder_Backend* %this, %class.AP_RangeFinder_Backend** %this.addr, align 8
  call void @llvm.dbg.declare(metadata %class.AP_RangeFinder_Backend** %this.addr, metadata !7020, metadata !6032), !dbg !7021
  %this1 = load %class.AP_RangeFinder_Backend*, %class.AP_RangeFinder_Backend** %this.addr, align 8
  %state = getelementptr inbounds %class.AP_RangeFinder_Backend, %class.AP_RangeFinder_Backend* %this1, i32 0, i32 1, !dbg !7022
  %ref = load %"struct.RangeFinder::RangeFinder_State"*, %"struct.RangeFinder::RangeFinder_State"** %state, align 8, !dbg !7022
  %voltage_mv = getelementptr inbounds %"struct.RangeFinder::RangeFinder_State", %"struct.RangeFinder::RangeFinder_State"* %ref, i32 0, i32 1, !dbg !7023
  %0 = load i16, i16* %voltage_mv, align 2, !dbg !7023
  ret i16 %0, !dbg !7024
}

; Function Attrs: nounwind uwtable
define zeroext i1 @_ZNK11GCS_MAVLINK14send_proximityEv(%class.GCS_MAVLINK* %this) #0 align 2 !dbg !7025 {
entry:
  %retval = alloca i1, align 1
  %this.addr = alloca %class.GCS_MAVLINK*, align 8
  %proximity = alloca %class.AP_Proximity*, align 8
  %dist_min = alloca i16, align 2
  %dist_max = alloca i16, align 2
  %dist_array = alloca %"struct.AP_Proximity::Proximity_Distance_Array", align 4
  %i = alloca i8, align 1
  %dist_up = alloca float, align 4
  store %class.GCS_MAVLINK* %this, %class.GCS_MAVLINK** %this.addr, align 8
  call void @llvm.dbg.declare(metadata %class.GCS_MAVLINK** %this.addr, metadata !7026, metadata !6032), !dbg !7027
  %this1 = load %class.GCS_MAVLINK*, %class.GCS_MAVLINK** %this.addr, align 8
  call void @llvm.dbg.declare(metadata %class.AP_Proximity** %proximity, metadata !7028, metadata !6032), !dbg !7029
  %call = call %class.AP_Proximity* @_ZN12AP_Proximity13get_singletonEv(), !dbg !7030
  store %class.AP_Proximity* %call, %class.AP_Proximity** %proximity, align 8, !dbg !7029
  %0 = load %class.AP_Proximity*, %class.AP_Proximity** %proximity, align 8, !dbg !7031
  %cmp = icmp eq %class.AP_Proximity* %0, null, !dbg !7033
  br i1 %cmp, label %if.then, label %lor.lhs.false, !dbg !7034

lor.lhs.false:                                    ; preds = %entry
  %1 = load %class.AP_Proximity*, %class.AP_Proximity** %proximity, align 8, !dbg !7035
  %call2 = call i32 @_ZNK12AP_Proximity10get_statusEv(%class.AP_Proximity* %1), !dbg !7037
  %cmp3 = icmp eq i32 %call2, 0, !dbg !7038
  br i1 %cmp3, label %if.then, label %if.end, !dbg !7039

if.then:                                          ; preds = %lor.lhs.false, %entry
  store i1 true, i1* %retval, align 1, !dbg !7040
  br label %return, !dbg !7040

if.end:                                           ; preds = %lor.lhs.false
  call void @llvm.dbg.declare(metadata i16* %dist_min, metadata !7042, metadata !6032), !dbg !7043
  %2 = load %class.AP_Proximity*, %class.AP_Proximity** %proximity, align 8, !dbg !7044
  %call4 = call float @_ZNK12AP_Proximity12distance_minEv(%class.AP_Proximity* %2), !dbg !7045
  %mul = fmul float %call4, 1.000000e+02, !dbg !7046
  %conv = fptoui float %mul to i16, !dbg !7047
  store i16 %conv, i16* %dist_min, align 2, !dbg !7043
  call void @llvm.dbg.declare(metadata i16* %dist_max, metadata !7048, metadata !6032), !dbg !7049
  %3 = load %class.AP_Proximity*, %class.AP_Proximity** %proximity, align 8, !dbg !7050
  %call5 = call float @_ZNK12AP_Proximity12distance_maxEv(%class.AP_Proximity* %3), !dbg !7051
  %mul6 = fmul float %call5, 1.000000e+02, !dbg !7052
  %conv7 = fptoui float %mul6 to i16, !dbg !7053
  store i16 %conv7, i16* %dist_max, align 2, !dbg !7049
  call void @llvm.dbg.declare(metadata %"struct.AP_Proximity::Proximity_Distance_Array"* %dist_array, metadata !7054, metadata !6032), !dbg !7055
  %4 = load %class.AP_Proximity*, %class.AP_Proximity** %proximity, align 8, !dbg !7056
  %call8 = call zeroext i1 @_ZNK12AP_Proximity24get_horizontal_distancesERNS_24Proximity_Distance_ArrayE(%class.AP_Proximity* %4, %"struct.AP_Proximity::Proximity_Distance_Array"* dereferenceable(40) %dist_array), !dbg !7058
  br i1 %call8, label %if.then9, label %if.end28, !dbg !7059

if.then9:                                         ; preds = %if.end
  call void @llvm.dbg.declare(metadata i8* %i, metadata !7060, metadata !6032), !dbg !7063
  store i8 0, i8* %i, align 1, !dbg !7063
  br label %for.cond, !dbg !7064

for.cond:                                         ; preds = %for.inc, %if.then9
  %5 = load i8, i8* %i, align 1, !dbg !7065
  %conv10 = zext i8 %5 to i32, !dbg !7065
  %cmp11 = icmp slt i32 %conv10, 8, !dbg !7068
  br i1 %cmp11, label %for.body, label %if.end28, !dbg !7069

for.body:                                         ; preds = %for.cond
  %chan = getelementptr inbounds %class.GCS_MAVLINK, %class.GCS_MAVLINK* %this1, i32 0, i32 10, !dbg !7070
  %6 = load i32, i32* %chan, align 8, !dbg !7070
  %call12 = call zeroext i16 @_Z16comm_get_txspace17mavlink_channel_t(i32 %6), !dbg !7070
  %conv13 = zext i16 %call12 to i32, !dbg !7070
  %call14 = call zeroext i8 @_ZNK11GCS_MAVLINK15packet_overheadEv(%class.GCS_MAVLINK* %this1), !dbg !7073
  %conv15 = zext i8 %call14 to i32, !dbg !7070
  %add = add nsw i32 %conv15, 14, !dbg !7070
  %cmp16 = icmp slt i32 %conv13, %add, !dbg !7070
  br i1 %cmp16, label %if.then17, label %if.end18, !dbg !7075

if.then17:                                        ; preds = %for.body
  store i1 false, i1* %retval, align 1, !dbg !7076
  br label %return, !dbg !7076

if.end18:                                         ; preds = %for.body
  %chan19 = getelementptr inbounds %class.GCS_MAVLINK, %class.GCS_MAVLINK* %this1, i32 0, i32 10, !dbg !7078
  %7 = load i32, i32* %chan19, align 8, !dbg !7078
  %call20 = call i32 @_ZN6AP_HAL6millisEv(), !dbg !7079
  %8 = load i16, i16* %dist_min, align 2, !dbg !7080
  %9 = load i16, i16* %dist_max, align 2, !dbg !7081
  %10 = load i8, i8* %i, align 1, !dbg !7082
  %idxprom = zext i8 %10 to i64, !dbg !7083
  %distance = getelementptr inbounds %"struct.AP_Proximity::Proximity_Distance_Array", %"struct.AP_Proximity::Proximity_Distance_Array"* %dist_array, i32 0, i32 1, !dbg !7084
  %arrayidx = getelementptr inbounds [8 x float], [8 x float]* %distance, i64 0, i64 %idxprom, !dbg !7083
  %11 = load float, float* %arrayidx, align 4, !dbg !7083
  %mul21 = fmul float %11, 1.000000e+02, !dbg !7085
  %conv22 = fptoui float %mul21 to i16, !dbg !7086
  %12 = load i8, i8* %i, align 1, !dbg !7087
  %conv23 = zext i8 %12 to i32, !dbg !7087
  %add24 = add nsw i32 10, %conv23, !dbg !7088
  %conv25 = trunc i32 %add24 to i8, !dbg !7089
  %13 = load i8, i8* %i, align 1, !dbg !7090
  %idxprom26 = zext i8 %13 to i64, !dbg !7091
  %orientation = getelementptr inbounds %"struct.AP_Proximity::Proximity_Distance_Array", %"struct.AP_Proximity::Proximity_Distance_Array"* %dist_array, i32 0, i32 0, !dbg !7092
  %arrayidx27 = getelementptr inbounds [8 x i8], [8 x i8]* %orientation, i64 0, i64 %idxprom26, !dbg !7091
  %14 = load i8, i8* %arrayidx27, align 1, !dbg !7091
  call void @_ZL32mavlink_msg_distance_sensor_send17mavlink_channel_tjttthhhh(i32 %7, i32 %call20, i16 zeroext %8, i16 zeroext %9, i16 zeroext %conv22, i8 zeroext 0, i8 zeroext %conv25, i8 zeroext %14, i8 zeroext 0), !dbg !7093
  br label %for.inc, !dbg !7094

for.inc:                                          ; preds = %if.end18
  %15 = load i8, i8* %i, align 1, !dbg !7095
  %inc = add i8 %15, 1, !dbg !7095
  store i8 %inc, i8* %i, align 1, !dbg !7095
  br label %for.cond, !dbg !7097, !llvm.loop !7098

if.end28:                                         ; preds = %for.cond, %if.end
  call void @llvm.dbg.declare(metadata float* %dist_up, metadata !7100, metadata !6032), !dbg !7101
  %16 = load %class.AP_Proximity*, %class.AP_Proximity** %proximity, align 8, !dbg !7102
  %call29 = call zeroext i1 @_ZNK12AP_Proximity19get_upward_distanceERf(%class.AP_Proximity* %16, float* dereferenceable(4) %dist_up), !dbg !7104
  br i1 %call29, label %if.then30, label %if.end44, !dbg !7105

if.then30:                                        ; preds = %if.end28
  %chan31 = getelementptr inbounds %class.GCS_MAVLINK, %class.GCS_MAVLINK* %this1, i32 0, i32 10, !dbg !7106
  %17 = load i32, i32* %chan31, align 8, !dbg !7106
  %call32 = call zeroext i16 @_Z16comm_get_txspace17mavlink_channel_t(i32 %17), !dbg !7106
  %conv33 = zext i16 %call32 to i32, !dbg !7106
  %call34 = call zeroext i8 @_ZNK11GCS_MAVLINK15packet_overheadEv(%class.GCS_MAVLINK* %this1), !dbg !7109
  %conv35 = zext i8 %call34 to i32, !dbg !7106
  %add36 = add nsw i32 %conv35, 14, !dbg !7106
  %cmp37 = icmp slt i32 %conv33, %add36, !dbg !7106
  br i1 %cmp37, label %if.then38, label %if.end39, !dbg !7111

if.then38:                                        ; preds = %if.then30
  store i1 false, i1* %retval, align 1, !dbg !7112
  br label %return, !dbg !7112

if.end39:                                         ; preds = %if.then30
  %chan40 = getelementptr inbounds %class.GCS_MAVLINK, %class.GCS_MAVLINK* %this1, i32 0, i32 10, !dbg !7114
  %18 = load i32, i32* %chan40, align 8, !dbg !7114
  %call41 = call i32 @_ZN6AP_HAL6millisEv(), !dbg !7115
  %19 = load i16, i16* %dist_min, align 2, !dbg !7116
  %20 = load i16, i16* %dist_max, align 2, !dbg !7117
  %21 = load float, float* %dist_up, align 4, !dbg !7118
  %mul42 = fmul float %21, 1.000000e+02, !dbg !7119
  %conv43 = fptoui float %mul42 to i16, !dbg !7120
  call void @_ZL32mavlink_msg_distance_sensor_send17mavlink_channel_tjttthhhh(i32 %18, i32 %call41, i16 zeroext %19, i16 zeroext %20, i16 zeroext %conv43, i8 zeroext 0, i8 zeroext 19, i8 zeroext 24, i8 zeroext 0), !dbg !7121
  br label %if.end44, !dbg !7122

if.end44:                                         ; preds = %if.end39, %if.end28
  store i1 true, i1* %retval, align 1, !dbg !7123
  br label %return, !dbg !7123

return:                                           ; preds = %if.end44, %if.then38, %if.then17, %if.then
  %22 = load i1, i1* %retval, align 1, !dbg !7124
  ret i1 %22, !dbg !7124
}

declare i32 @_ZNK12AP_Proximity10get_statusEv(%class.AP_Proximity*) #4

declare float @_ZNK12AP_Proximity12distance_minEv(%class.AP_Proximity*) #4

declare float @_ZNK12AP_Proximity12distance_maxEv(%class.AP_Proximity*) #4

declare zeroext i1 @_ZNK12AP_Proximity24get_horizontal_distancesERNS_24Proximity_Distance_ArrayE(%class.AP_Proximity*, %"struct.AP_Proximity::Proximity_Distance_Array"* dereferenceable(40)) #4

declare zeroext i1 @_ZNK12AP_Proximity19get_upward_distanceERf(%class.AP_Proximity*, float* dereferenceable(4)) #4

; Function Attrs: nounwind uwtable
define void @_ZN11GCS_MAVLINK10send_ahrs2Ev(%class.GCS_MAVLINK* %this) #0 align 2 !dbg !7125 {
entry:
  %this.addr = alloca %class.GCS_MAVLINK*, align 8
  %ahrs = alloca %class.AP_AHRS*, align 8
  %euler = alloca %class.Vector3, align 4
  %loc = alloca %struct.Location, align 1
  %_ahrs = alloca %class.AP_AHRS_NavEKF*, align 8
  %ekf2 = alloca %class.NavEKF2*, align 8
  store %class.GCS_MAVLINK* %this, %class.GCS_MAVLINK** %this.addr, align 8
  call void @llvm.dbg.declare(metadata %class.GCS_MAVLINK** %this.addr, metadata !7126, metadata !6032), !dbg !7127
  %this1 = load %class.GCS_MAVLINK*, %class.GCS_MAVLINK** %this.addr, align 8
  call void @llvm.dbg.declare(metadata %class.AP_AHRS** %ahrs, metadata !7128, metadata !6032), !dbg !7129
  %call = call dereferenceable(400) %class.AP_AHRS* @_ZN2AP4ahrsEv(), !dbg !7130
  store %class.AP_AHRS* %call, %class.AP_AHRS** %ahrs, align 8, !dbg !7129
  call void @llvm.dbg.declare(metadata %class.Vector3* %euler, metadata !7131, metadata !6032), !dbg !7132
  call void @_ZN7Vector3IfEC2Ev(%class.Vector3* %euler), !dbg !7132
  call void @llvm.dbg.declare(metadata %struct.Location* %loc, metadata !7133, metadata !6032), !dbg !7134
  %0 = bitcast %struct.Location* %loc to i8*, !dbg !7134
  call void @llvm.memset.p0i8.i64(i8* %0, i8 0, i64 12, i32 1, i1 false), !dbg !7134
  %1 = load %class.AP_AHRS*, %class.AP_AHRS** %ahrs, align 8, !dbg !7135
  %2 = bitcast %class.AP_AHRS* %1 to i1 (%class.AP_AHRS*, %class.Vector3*)***, !dbg !7137
  %vtable = load i1 (%class.AP_AHRS*, %class.Vector3*)**, i1 (%class.AP_AHRS*, %class.Vector3*)*** %2, align 8, !dbg !7137
  %vfn = getelementptr inbounds i1 (%class.AP_AHRS*, %class.Vector3*)*, i1 (%class.AP_AHRS*, %class.Vector3*)** %vtable, i64 37, !dbg !7137
  %3 = load i1 (%class.AP_AHRS*, %class.Vector3*)*, i1 (%class.AP_AHRS*, %class.Vector3*)** %vfn, align 8, !dbg !7137
  %call2 = call zeroext i1 %3(%class.AP_AHRS* %1, %class.Vector3* dereferenceable(12) %euler), !dbg !7137
  br i1 %call2, label %if.then, label %if.end, !dbg !7138

if.then:                                          ; preds = %entry
  %chan = getelementptr inbounds %class.GCS_MAVLINK, %class.GCS_MAVLINK* %this1, i32 0, i32 10, !dbg !7139
  %4 = load i32, i32* %chan, align 8, !dbg !7139
  %x = getelementptr inbounds %class.Vector3, %class.Vector3* %euler, i32 0, i32 0, !dbg !7141
  %5 = load float, float* %x, align 4, !dbg !7141
  %y = getelementptr inbounds %class.Vector3, %class.Vector3* %euler, i32 0, i32 1, !dbg !7142
  %6 = load float, float* %y, align 4, !dbg !7142
  %z = getelementptr inbounds %class.Vector3, %class.Vector3* %euler, i32 0, i32 2, !dbg !7143
  %7 = load float, float* %z, align 4, !dbg !7143
  %alt = getelementptr inbounds %struct.Location, %struct.Location* %loc, i32 0, i32 1, !dbg !7144
  %8 = bitcast [3 x i8]* %alt to i24*, !dbg !7144
  %bf.load = load i24, i24* %8, align 1, !dbg !7144
  %bf.cast = sext i24 %bf.load to i32, !dbg !7144
  %conv = sitofp i32 %bf.cast to float, !dbg !7145
  %mul = fmul float %conv, 0x3F847AE140000000, !dbg !7146
  %lat = getelementptr inbounds %struct.Location, %struct.Location* %loc, i32 0, i32 2, !dbg !7147
  %9 = load i32, i32* %lat, align 1, !dbg !7147
  %lng = getelementptr inbounds %struct.Location, %struct.Location* %loc, i32 0, i32 3, !dbg !7148
  %10 = load i32, i32* %lng, align 1, !dbg !7148
  call void @_ZL22mavlink_msg_ahrs2_send17mavlink_channel_tffffii(i32 %4, float %5, float %6, float %7, float %mul, i32 %9, i32 %10), !dbg !7149
  br label %if.end, !dbg !7150

if.end:                                           ; preds = %if.then, %entry
  call void @llvm.dbg.declare(metadata %class.AP_AHRS_NavEKF** %_ahrs, metadata !7151, metadata !6032), !dbg !7152
  %11 = load %class.AP_AHRS*, %class.AP_AHRS** %ahrs, align 8, !dbg !7153
  %12 = bitcast %class.AP_AHRS* %11 to %class.AP_AHRS_NavEKF*, !dbg !7154
  store %class.AP_AHRS_NavEKF* %12, %class.AP_AHRS_NavEKF** %_ahrs, align 8, !dbg !7152
  call void @llvm.dbg.declare(metadata %class.NavEKF2** %ekf2, metadata !7155, metadata !6032), !dbg !7479
  %13 = load %class.AP_AHRS_NavEKF*, %class.AP_AHRS_NavEKF** %_ahrs, align 8, !dbg !7480
  %call3 = call dereferenceable(320) %class.NavEKF2* @_ZNK14AP_AHRS_NavEKF17get_NavEKF2_constEv(%class.AP_AHRS_NavEKF* %13), !dbg !7481
  store %class.NavEKF2* %call3, %class.NavEKF2** %ekf2, align 8, !dbg !7479
  %14 = load %class.NavEKF2*, %class.NavEKF2** %ekf2, align 8, !dbg !7482
  %call4 = call zeroext i8 @_ZNK7NavEKF211activeCoresEv(%class.NavEKF2* %14), !dbg !7484
  %conv5 = zext i8 %call4 to i32, !dbg !7482
  %cmp = icmp sgt i32 %conv5, 0, !dbg !7485
  br i1 %cmp, label %land.lhs.true, label %if.end26, !dbg !7486

land.lhs.true:                                    ; preds = %if.end
  %chan6 = getelementptr inbounds %class.GCS_MAVLINK, %class.GCS_MAVLINK* %this1, i32 0, i32 10, !dbg !7487
  %15 = load i32, i32* %chan6, align 8, !dbg !7487
  %call7 = call zeroext i16 @_Z16comm_get_txspace17mavlink_channel_t(i32 %15), !dbg !7487
  %conv8 = zext i16 %call7 to i32, !dbg !7487
  %chan9 = getelementptr inbounds %class.GCS_MAVLINK, %class.GCS_MAVLINK* %this1, i32 0, i32 10, !dbg !7487
  %16 = load i32, i32* %chan9, align 8, !dbg !7487
  %call10 = call zeroext i8 @_ZN11GCS_MAVLINK20packet_overhead_chanE17mavlink_channel_t(i32 %16), !dbg !7488
  %conv11 = zext i8 %call10 to i32, !dbg !7487
  %add = add nsw i32 %conv11, 40, !dbg !7487
  %cmp12 = icmp sge i32 %conv8, %add, !dbg !7487
  br i1 %cmp12, label %if.then13, label %if.end26, !dbg !7490

if.then13:                                        ; preds = %land.lhs.true
  %17 = load %class.NavEKF2*, %class.NavEKF2** %ekf2, align 8, !dbg !7492
  %call14 = call zeroext i1 @_ZNK7NavEKF26getLLHER8Location(%class.NavEKF2* %17, %struct.Location* dereferenceable(12) %loc), !dbg !7494
  %18 = load %class.NavEKF2*, %class.NavEKF2** %ekf2, align 8, !dbg !7495
  call void @_ZNK7NavEKF214getEulerAnglesEaR7Vector3IfE(%class.NavEKF2* %18, i8 signext -1, %class.Vector3* dereferenceable(12) %euler), !dbg !7496
  %chan15 = getelementptr inbounds %class.GCS_MAVLINK, %class.GCS_MAVLINK* %this1, i32 0, i32 10, !dbg !7497
  %19 = load i32, i32* %chan15, align 8, !dbg !7497
  %x16 = getelementptr inbounds %class.Vector3, %class.Vector3* %euler, i32 0, i32 0, !dbg !7498
  %20 = load float, float* %x16, align 4, !dbg !7498
  %y17 = getelementptr inbounds %class.Vector3, %class.Vector3* %euler, i32 0, i32 1, !dbg !7499
  %21 = load float, float* %y17, align 4, !dbg !7499
  %z18 = getelementptr inbounds %class.Vector3, %class.Vector3* %euler, i32 0, i32 2, !dbg !7500
  %22 = load float, float* %z18, align 4, !dbg !7500
  %alt19 = getelementptr inbounds %struct.Location, %struct.Location* %loc, i32 0, i32 1, !dbg !7501
  %23 = bitcast [3 x i8]* %alt19 to i24*, !dbg !7501
  %bf.load20 = load i24, i24* %23, align 1, !dbg !7501
  %bf.cast21 = sext i24 %bf.load20 to i32, !dbg !7501
  %conv22 = sitofp i32 %bf.cast21 to float, !dbg !7502
  %mul23 = fmul float %conv22, 0x3F847AE140000000, !dbg !7503
  %lat24 = getelementptr inbounds %struct.Location, %struct.Location* %loc, i32 0, i32 2, !dbg !7504
  %24 = load i32, i32* %lat24, align 1, !dbg !7504
  %lng25 = getelementptr inbounds %struct.Location, %struct.Location* %loc, i32 0, i32 3, !dbg !7505
  %25 = load i32, i32* %lng25, align 1, !dbg !7505
  call void @_ZL22mavlink_msg_ahrs3_send17mavlink_channel_tffffiiffff(i32 %19, float %20, float %21, float %22, float %mul23, i32 %24, i32 %25, float 0.000000e+00, float 0.000000e+00, float 0.000000e+00, float 0.000000e+00), !dbg !7506
  br label %if.end26, !dbg !7507

if.end26:                                         ; preds = %if.then13, %land.lhs.true, %if.end
  ret void, !dbg !7508
}

declare dereferenceable(400) %class.AP_AHRS* @_ZN2AP4ahrsEv() #4

; Function Attrs: argmemonly nounwind
declare void @llvm.memset.p0i8.i64(i8* nocapture writeonly, i8, i64, i32, i1) #5

; Function Attrs: inlinehint nounwind uwtable
define internal void @_ZL22mavlink_msg_ahrs2_send17mavlink_channel_tffffii(i32 %chan, float %roll, float %pitch, float %yaw, float %altitude, i32 %lat, i32 %lng) #3 !dbg !7509 {
entry:
  %chan.addr = alloca i32, align 4
  %roll.addr = alloca float, align 4
  %pitch.addr = alloca float, align 4
  %yaw.addr = alloca float, align 4
  %altitude.addr = alloca float, align 4
  %lat.addr = alloca i32, align 4
  %lng.addr = alloca i32, align 4
  %packet = alloca %struct.__mavlink_ahrs2_t, align 1
  store i32 %chan, i32* %chan.addr, align 4
  call void @llvm.dbg.declare(metadata i32* %chan.addr, metadata !7513, metadata !6032), !dbg !7514
  store float %roll, float* %roll.addr, align 4
  call void @llvm.dbg.declare(metadata float* %roll.addr, metadata !7515, metadata !6032), !dbg !7516
  store float %pitch, float* %pitch.addr, align 4
  call void @llvm.dbg.declare(metadata float* %pitch.addr, metadata !7517, metadata !6032), !dbg !7518
  store float %yaw, float* %yaw.addr, align 4
  call void @llvm.dbg.declare(metadata float* %yaw.addr, metadata !7519, metadata !6032), !dbg !7520
  store float %altitude, float* %altitude.addr, align 4
  call void @llvm.dbg.declare(metadata float* %altitude.addr, metadata !7521, metadata !6032), !dbg !7522
  store i32 %lat, i32* %lat.addr, align 4
  call void @llvm.dbg.declare(metadata i32* %lat.addr, metadata !7523, metadata !6032), !dbg !7524
  store i32 %lng, i32* %lng.addr, align 4
  call void @llvm.dbg.declare(metadata i32* %lng.addr, metadata !7525, metadata !6032), !dbg !7526
  call void @llvm.dbg.declare(metadata %struct.__mavlink_ahrs2_t* %packet, metadata !7527, metadata !6032), !dbg !7537
  %0 = load float, float* %roll.addr, align 4, !dbg !7538
  %roll1 = getelementptr inbounds %struct.__mavlink_ahrs2_t, %struct.__mavlink_ahrs2_t* %packet, i32 0, i32 0, !dbg !7539
  store float %0, float* %roll1, align 1, !dbg !7540
  %1 = load float, float* %pitch.addr, align 4, !dbg !7541
  %pitch2 = getelementptr inbounds %struct.__mavlink_ahrs2_t, %struct.__mavlink_ahrs2_t* %packet, i32 0, i32 1, !dbg !7542
  store float %1, float* %pitch2, align 1, !dbg !7543
  %2 = load float, float* %yaw.addr, align 4, !dbg !7544
  %yaw3 = getelementptr inbounds %struct.__mavlink_ahrs2_t, %struct.__mavlink_ahrs2_t* %packet, i32 0, i32 2, !dbg !7545
  store float %2, float* %yaw3, align 1, !dbg !7546
  %3 = load float, float* %altitude.addr, align 4, !dbg !7547
  %altitude4 = getelementptr inbounds %struct.__mavlink_ahrs2_t, %struct.__mavlink_ahrs2_t* %packet, i32 0, i32 3, !dbg !7548
  store float %3, float* %altitude4, align 1, !dbg !7549
  %4 = load i32, i32* %lat.addr, align 4, !dbg !7550
  %lat5 = getelementptr inbounds %struct.__mavlink_ahrs2_t, %struct.__mavlink_ahrs2_t* %packet, i32 0, i32 4, !dbg !7551
  store i32 %4, i32* %lat5, align 1, !dbg !7552
  %5 = load i32, i32* %lng.addr, align 4, !dbg !7553
  %lng6 = getelementptr inbounds %struct.__mavlink_ahrs2_t, %struct.__mavlink_ahrs2_t* %packet, i32 0, i32 5, !dbg !7554
  store i32 %5, i32* %lng6, align 1, !dbg !7555
  %6 = load i32, i32* %chan.addr, align 4, !dbg !7556
  %7 = bitcast %struct.__mavlink_ahrs2_t* %packet to i8*, !dbg !7557
  call void @_mav_finalize_message_chan_send(i32 %6, i32 178, i8* %7, i8 zeroext 24, i8 zeroext 24, i8 zeroext 47), !dbg !7558
  ret void, !dbg !7559
}

; Function Attrs: nounwind uwtable
define linkonce_odr dereferenceable(320) %class.NavEKF2* @_ZNK14AP_AHRS_NavEKF17get_NavEKF2_constEv(%class.AP_AHRS_NavEKF* %this) #0 comdat align 2 !dbg !7560 {
entry:
  %this.addr = alloca %class.AP_AHRS_NavEKF*, align 8
  store %class.AP_AHRS_NavEKF* %this, %class.AP_AHRS_NavEKF** %this.addr, align 8
  call void @llvm.dbg.declare(metadata %class.AP_AHRS_NavEKF** %this.addr, metadata !7565, metadata !6032), !dbg !7567
  %this1 = load %class.AP_AHRS_NavEKF*, %class.AP_AHRS_NavEKF** %this.addr, align 8
  %EKF2 = getelementptr inbounds %class.AP_AHRS_NavEKF, %class.AP_AHRS_NavEKF* %this1, i32 0, i32 2, !dbg !7568
  %ref = load %class.NavEKF2*, %class.NavEKF2** %EKF2, align 8, !dbg !7568
  ret %class.NavEKF2* %ref, !dbg !7569
}

; Function Attrs: nounwind uwtable
define linkonce_odr zeroext i8 @_ZNK7NavEKF211activeCoresEv(%class.NavEKF2* %this) #0 comdat align 2 !dbg !7570 {
entry:
  %this.addr = alloca %class.NavEKF2*, align 8
  store %class.NavEKF2* %this, %class.NavEKF2** %this.addr, align 8
  call void @llvm.dbg.declare(metadata %class.NavEKF2** %this.addr, metadata !7571, metadata !6032), !dbg !7573
  %this1 = load %class.NavEKF2*, %class.NavEKF2** %this.addr, align 8
  %num_cores = getelementptr inbounds %class.NavEKF2, %class.NavEKF2* %this1, i32 0, i32 0, !dbg !7574
  %0 = load i8, i8* %num_cores, align 8, !dbg !7574
  ret i8 %0, !dbg !7575
}

declare zeroext i8 @_ZN11GCS_MAVLINK20packet_overhead_chanE17mavlink_channel_t(i32) #4

declare zeroext i1 @_ZNK7NavEKF26getLLHER8Location(%class.NavEKF2*, %struct.Location* dereferenceable(12)) #4

declare void @_ZNK7NavEKF214getEulerAnglesEaR7Vector3IfE(%class.NavEKF2*, i8 signext, %class.Vector3* dereferenceable(12)) #4

; Function Attrs: inlinehint nounwind uwtable
define internal void @_ZL22mavlink_msg_ahrs3_send17mavlink_channel_tffffiiffff(i32 %chan, float %roll, float %pitch, float %yaw, float %altitude, i32 %lat, i32 %lng, float %v1, float %v2, float %v3, float %v4) #3 !dbg !7576 {
entry:
  %chan.addr = alloca i32, align 4
  %roll.addr = alloca float, align 4
  %pitch.addr = alloca float, align 4
  %yaw.addr = alloca float, align 4
  %altitude.addr = alloca float, align 4
  %lat.addr = alloca i32, align 4
  %lng.addr = alloca i32, align 4
  %v1.addr = alloca float, align 4
  %v2.addr = alloca float, align 4
  %v3.addr = alloca float, align 4
  %v4.addr = alloca float, align 4
  %packet = alloca %struct.__mavlink_ahrs3_t, align 1
  store i32 %chan, i32* %chan.addr, align 4
  call void @llvm.dbg.declare(metadata i32* %chan.addr, metadata !7580, metadata !6032), !dbg !7581
  store float %roll, float* %roll.addr, align 4
  call void @llvm.dbg.declare(metadata float* %roll.addr, metadata !7582, metadata !6032), !dbg !7583
  store float %pitch, float* %pitch.addr, align 4
  call void @llvm.dbg.declare(metadata float* %pitch.addr, metadata !7584, metadata !6032), !dbg !7585
  store float %yaw, float* %yaw.addr, align 4
  call void @llvm.dbg.declare(metadata float* %yaw.addr, metadata !7586, metadata !6032), !dbg !7587
  store float %altitude, float* %altitude.addr, align 4
  call void @llvm.dbg.declare(metadata float* %altitude.addr, metadata !7588, metadata !6032), !dbg !7589
  store i32 %lat, i32* %lat.addr, align 4
  call void @llvm.dbg.declare(metadata i32* %lat.addr, metadata !7590, metadata !6032), !dbg !7591
  store i32 %lng, i32* %lng.addr, align 4
  call void @llvm.dbg.declare(metadata i32* %lng.addr, metadata !7592, metadata !6032), !dbg !7593
  store float %v1, float* %v1.addr, align 4
  call void @llvm.dbg.declare(metadata float* %v1.addr, metadata !7594, metadata !6032), !dbg !7595
  store float %v2, float* %v2.addr, align 4
  call void @llvm.dbg.declare(metadata float* %v2.addr, metadata !7596, metadata !6032), !dbg !7597
  store float %v3, float* %v3.addr, align 4
  call void @llvm.dbg.declare(metadata float* %v3.addr, metadata !7598, metadata !6032), !dbg !7599
  store float %v4, float* %v4.addr, align 4
  call void @llvm.dbg.declare(metadata float* %v4.addr, metadata !7600, metadata !6032), !dbg !7601
  call void @llvm.dbg.declare(metadata %struct.__mavlink_ahrs3_t* %packet, metadata !7602, metadata !6032), !dbg !7616
  %0 = load float, float* %roll.addr, align 4, !dbg !7617
  %roll1 = getelementptr inbounds %struct.__mavlink_ahrs3_t, %struct.__mavlink_ahrs3_t* %packet, i32 0, i32 0, !dbg !7618
  store float %0, float* %roll1, align 1, !dbg !7619
  %1 = load float, float* %pitch.addr, align 4, !dbg !7620
  %pitch2 = getelementptr inbounds %struct.__mavlink_ahrs3_t, %struct.__mavlink_ahrs3_t* %packet, i32 0, i32 1, !dbg !7621
  store float %1, float* %pitch2, align 1, !dbg !7622
  %2 = load float, float* %yaw.addr, align 4, !dbg !7623
  %yaw3 = getelementptr inbounds %struct.__mavlink_ahrs3_t, %struct.__mavlink_ahrs3_t* %packet, i32 0, i32 2, !dbg !7624
  store float %2, float* %yaw3, align 1, !dbg !7625
  %3 = load float, float* %altitude.addr, align 4, !dbg !7626
  %altitude4 = getelementptr inbounds %struct.__mavlink_ahrs3_t, %struct.__mavlink_ahrs3_t* %packet, i32 0, i32 3, !dbg !7627
  store float %3, float* %altitude4, align 1, !dbg !7628
  %4 = load i32, i32* %lat.addr, align 4, !dbg !7629
  %lat5 = getelementptr inbounds %struct.__mavlink_ahrs3_t, %struct.__mavlink_ahrs3_t* %packet, i32 0, i32 4, !dbg !7630
  store i32 %4, i32* %lat5, align 1, !dbg !7631
  %5 = load i32, i32* %lng.addr, align 4, !dbg !7632
  %lng6 = getelementptr inbounds %struct.__mavlink_ahrs3_t, %struct.__mavlink_ahrs3_t* %packet, i32 0, i32 5, !dbg !7633
  store i32 %5, i32* %lng6, align 1, !dbg !7634
  %6 = load float, float* %v1.addr, align 4, !dbg !7635
  %v17 = getelementptr inbounds %struct.__mavlink_ahrs3_t, %struct.__mavlink_ahrs3_t* %packet, i32 0, i32 6, !dbg !7636
  store float %6, float* %v17, align 1, !dbg !7637
  %7 = load float, float* %v2.addr, align 4, !dbg !7638
  %v28 = getelementptr inbounds %struct.__mavlink_ahrs3_t, %struct.__mavlink_ahrs3_t* %packet, i32 0, i32 7, !dbg !7639
  store float %7, float* %v28, align 1, !dbg !7640
  %8 = load float, float* %v3.addr, align 4, !dbg !7641
  %v39 = getelementptr inbounds %struct.__mavlink_ahrs3_t, %struct.__mavlink_ahrs3_t* %packet, i32 0, i32 8, !dbg !7642
  store float %8, float* %v39, align 1, !dbg !7643
  %9 = load float, float* %v4.addr, align 4, !dbg !7644
  %v410 = getelementptr inbounds %struct.__mavlink_ahrs3_t, %struct.__mavlink_ahrs3_t* %packet, i32 0, i32 9, !dbg !7645
  store float %9, float* %v410, align 1, !dbg !7646
  %10 = load i32, i32* %chan.addr, align 4, !dbg !7647
  %11 = bitcast %struct.__mavlink_ahrs3_t* %packet to i8*, !dbg !7648
  call void @_mav_finalize_message_chan_send(i32 %10, i32 182, i8* %11, i8 zeroext 40, i8 zeroext 40, i8 zeroext -27), !dbg !7649
  ret void, !dbg !7650
}

; Function Attrs: nounwind uwtable
define void @_ZN11GCS_MAVLINK27handle_mission_request_listER10AP_MissionP17__mavlink_message(%class.GCS_MAVLINK* %this, %class.AP_Mission* dereferenceable(184) %mission, %struct.__mavlink_message* %msg) #0 align 2 !dbg !7651 {
entry:
  %this.addr = alloca %class.GCS_MAVLINK*, align 8
  %mission.addr = alloca %class.AP_Mission*, align 8
  %msg.addr = alloca %struct.__mavlink_message*, align 8
  %packet = alloca %struct.__mavlink_mission_request_list_t, align 1
  store %class.GCS_MAVLINK* %this, %class.GCS_MAVLINK** %this.addr, align 8
  call void @llvm.dbg.declare(metadata %class.GCS_MAVLINK** %this.addr, metadata !7652, metadata !6032), !dbg !7653
  store %class.AP_Mission* %mission, %class.AP_Mission** %mission.addr, align 8
  call void @llvm.dbg.declare(metadata %class.AP_Mission** %mission.addr, metadata !7654, metadata !6032), !dbg !7655
  store %struct.__mavlink_message* %msg, %struct.__mavlink_message** %msg.addr, align 8
  call void @llvm.dbg.declare(metadata %struct.__mavlink_message** %msg.addr, metadata !7656, metadata !6032), !dbg !7657
  %this1 = load %class.GCS_MAVLINK*, %class.GCS_MAVLINK** %this.addr, align 8
  call void @llvm.dbg.declare(metadata %struct.__mavlink_mission_request_list_t* %packet, metadata !7658, metadata !6032), !dbg !7666
  %0 = load %struct.__mavlink_message*, %struct.__mavlink_message** %msg.addr, align 8, !dbg !7667
  call void @_ZL39mavlink_msg_mission_request_list_decodePK17__mavlink_messageP32__mavlink_mission_request_list_t(%struct.__mavlink_message* %0, %struct.__mavlink_mission_request_list_t* %packet), !dbg !7668
  %chan = getelementptr inbounds %class.GCS_MAVLINK, %class.GCS_MAVLINK* %this1, i32 0, i32 10, !dbg !7669
  %1 = load i32, i32* %chan, align 8, !dbg !7669
  %2 = load %struct.__mavlink_message*, %struct.__mavlink_message** %msg.addr, align 8, !dbg !7670
  %sysid = getelementptr inbounds %struct.__mavlink_message, %struct.__mavlink_message* %2, i32 0, i32 6, !dbg !7671
  %3 = load i8, i8* %sysid, align 1, !dbg !7671
  %4 = load %struct.__mavlink_message*, %struct.__mavlink_message** %msg.addr, align 8, !dbg !7672
  %compid = getelementptr inbounds %struct.__mavlink_message, %struct.__mavlink_message* %4, i32 0, i32 7, !dbg !7673
  %5 = load i8, i8* %compid, align 1, !dbg !7673
  %6 = load %class.AP_Mission*, %class.AP_Mission** %mission.addr, align 8, !dbg !7674
  %call = call zeroext i16 @_ZNK10AP_Mission12num_commandsEv(%class.AP_Mission* %6), !dbg !7675
  call void @_ZL30mavlink_msg_mission_count_send17mavlink_channel_thhth(i32 %1, i8 zeroext %3, i8 zeroext %5, i16 zeroext %call, i8 zeroext 0), !dbg !7676
  %waypoint_receiving = getelementptr inbounds %class.GCS_MAVLINK, %class.GCS_MAVLINK* %this1, i32 0, i32 5, !dbg !7678
  store i8 0, i8* %waypoint_receiving, align 2, !dbg !7679
  ret void, !dbg !7680
}

; Function Attrs: inlinehint nounwind uwtable
define internal void @_ZL39mavlink_msg_mission_request_list_decodePK17__mavlink_messageP32__mavlink_mission_request_list_t(%struct.__mavlink_message* %msg, %struct.__mavlink_mission_request_list_t* %mission_request_list) #3 !dbg !7681 {
entry:
  %msg.addr = alloca %struct.__mavlink_message*, align 8
  %mission_request_list.addr = alloca %struct.__mavlink_mission_request_list_t*, align 8
  %len = alloca i8, align 1
  store %struct.__mavlink_message* %msg, %struct.__mavlink_message** %msg.addr, align 8
  call void @llvm.dbg.declare(metadata %struct.__mavlink_message** %msg.addr, metadata !7685, metadata !6032), !dbg !7686
  store %struct.__mavlink_mission_request_list_t* %mission_request_list, %struct.__mavlink_mission_request_list_t** %mission_request_list.addr, align 8
  call void @llvm.dbg.declare(metadata %struct.__mavlink_mission_request_list_t** %mission_request_list.addr, metadata !7687, metadata !6032), !dbg !7688
  call void @llvm.dbg.declare(metadata i8* %len, metadata !7689, metadata !6032), !dbg !7690
  %0 = load %struct.__mavlink_message*, %struct.__mavlink_message** %msg.addr, align 8, !dbg !7691
  %len1 = getelementptr inbounds %struct.__mavlink_message, %struct.__mavlink_message* %0, i32 0, i32 2, !dbg !7692
  %1 = load i8, i8* %len1, align 1, !dbg !7692
  %conv = zext i8 %1 to i32, !dbg !7691
  %cmp = icmp slt i32 %conv, 3, !dbg !7693
  br i1 %cmp, label %cond.true, label %cond.false, !dbg !7691

cond.true:                                        ; preds = %entry
  %2 = load %struct.__mavlink_message*, %struct.__mavlink_message** %msg.addr, align 8, !dbg !7694
  %len2 = getelementptr inbounds %struct.__mavlink_message, %struct.__mavlink_message* %2, i32 0, i32 2, !dbg !7696
  %3 = load i8, i8* %len2, align 1, !dbg !7696
  %conv3 = zext i8 %3 to i32, !dbg !7694
  br label %cond.end, !dbg !7697

cond.false:                                       ; preds = %entry
  br label %cond.end, !dbg !7698

cond.end:                                         ; preds = %cond.false, %cond.true
  %cond = phi i32 [ %conv3, %cond.true ], [ 3, %cond.false ], !dbg !7700
  %conv4 = trunc i32 %cond to i8, !dbg !7700
  store i8 %conv4, i8* %len, align 1, !dbg !7702
  %4 = load %struct.__mavlink_mission_request_list_t*, %struct.__mavlink_mission_request_list_t** %mission_request_list.addr, align 8, !dbg !7703
  %5 = bitcast %struct.__mavlink_mission_request_list_t* %4 to i8*, !dbg !7704
  call void @llvm.memset.p0i8.i64(i8* %5, i8 0, i64 3, i32 1, i1 false), !dbg !7704
  %6 = load %struct.__mavlink_mission_request_list_t*, %struct.__mavlink_mission_request_list_t** %mission_request_list.addr, align 8, !dbg !7705
  %7 = bitcast %struct.__mavlink_mission_request_list_t* %6 to i8*, !dbg !7706
  %8 = load %struct.__mavlink_message*, %struct.__mavlink_message** %msg.addr, align 8, !dbg !7707
  %payload64 = getelementptr inbounds %struct.__mavlink_message, %struct.__mavlink_message* %8, i32 0, i32 9, !dbg !7707
  %arrayidx = getelementptr inbounds [33 x i64], [33 x i64]* %payload64, i64 0, i64 0, !dbg !7707
  %9 = bitcast i64* %arrayidx to i8*, !dbg !7706
  %10 = load i8, i8* %len, align 1, !dbg !7708
  %conv5 = zext i8 %10 to i64, !dbg !7708
  call void @llvm.memcpy.p0i8.p0i8.i64(i8* %7, i8* %9, i64 %conv5, i32 1, i1 false), !dbg !7706
  ret void, !dbg !7709
}

; Function Attrs: inlinehint nounwind uwtable
define internal void @_ZL30mavlink_msg_mission_count_send17mavlink_channel_thhth(i32 %chan, i8 zeroext %target_system, i8 zeroext %target_component, i16 zeroext %count, i8 zeroext %mission_type) #3 !dbg !7710 {
entry:
  %chan.addr = alloca i32, align 4
  %target_system.addr = alloca i8, align 1
  %target_component.addr = alloca i8, align 1
  %count.addr = alloca i16, align 2
  %mission_type.addr = alloca i8, align 1
  %packet = alloca %struct.__mavlink_mission_count_t, align 1
  store i32 %chan, i32* %chan.addr, align 4
  call void @llvm.dbg.declare(metadata i32* %chan.addr, metadata !7712, metadata !6032), !dbg !7713
  store i8 %target_system, i8* %target_system.addr, align 1
  call void @llvm.dbg.declare(metadata i8* %target_system.addr, metadata !7714, metadata !6032), !dbg !7715
  store i8 %target_component, i8* %target_component.addr, align 1
  call void @llvm.dbg.declare(metadata i8* %target_component.addr, metadata !7716, metadata !6032), !dbg !7717
  store i16 %count, i16* %count.addr, align 2
  call void @llvm.dbg.declare(metadata i16* %count.addr, metadata !7718, metadata !6032), !dbg !7719
  store i8 %mission_type, i8* %mission_type.addr, align 1
  call void @llvm.dbg.declare(metadata i8* %mission_type.addr, metadata !7720, metadata !6032), !dbg !7721
  call void @llvm.dbg.declare(metadata %struct.__mavlink_mission_count_t* %packet, metadata !7722, metadata !6032), !dbg !7730
  %0 = load i16, i16* %count.addr, align 2, !dbg !7731
  %count1 = getelementptr inbounds %struct.__mavlink_mission_count_t, %struct.__mavlink_mission_count_t* %packet, i32 0, i32 0, !dbg !7732
  store i16 %0, i16* %count1, align 1, !dbg !7733
  %1 = load i8, i8* %target_system.addr, align 1, !dbg !7734
  %target_system2 = getelementptr inbounds %struct.__mavlink_mission_count_t, %struct.__mavlink_mission_count_t* %packet, i32 0, i32 1, !dbg !7735
  store i8 %1, i8* %target_system2, align 1, !dbg !7736
  %2 = load i8, i8* %target_component.addr, align 1, !dbg !7737
  %target_component3 = getelementptr inbounds %struct.__mavlink_mission_count_t, %struct.__mavlink_mission_count_t* %packet, i32 0, i32 2, !dbg !7738
  store i8 %2, i8* %target_component3, align 1, !dbg !7739
  %3 = load i8, i8* %mission_type.addr, align 1, !dbg !7740
  %mission_type4 = getelementptr inbounds %struct.__mavlink_mission_count_t, %struct.__mavlink_mission_count_t* %packet, i32 0, i32 3, !dbg !7741
  store i8 %3, i8* %mission_type4, align 1, !dbg !7742
  %4 = load i32, i32* %chan.addr, align 4, !dbg !7743
  %5 = bitcast %struct.__mavlink_mission_count_t* %packet to i8*, !dbg !7744
  call void @_mav_finalize_message_chan_send(i32 %4, i32 44, i8* %5, i8 zeroext 4, i8 zeroext 5, i8 zeroext -35), !dbg !7745
  ret void, !dbg !7746
}

; Function Attrs: nounwind uwtable
define linkonce_odr zeroext i16 @_ZNK10AP_Mission12num_commandsEv(%class.AP_Mission* %this) #0 comdat align 2 !dbg !7747 {
entry:
  %this.addr = alloca %class.AP_Mission*, align 8
  store %class.AP_Mission* %this, %class.AP_Mission** %this.addr, align 8
  call void @llvm.dbg.declare(metadata %class.AP_Mission** %this.addr, metadata !7748, metadata !6032), !dbg !7749
  %this1 = load %class.AP_Mission*, %class.AP_Mission** %this.addr, align 8
  %_cmd_total = getelementptr inbounds %class.AP_Mission, %class.AP_Mission* %this1, i32 0, i32 2, !dbg !7750
  %call = call dereferenceable(2) i16* @_ZNK9AP_ParamTIsL11ap_var_type2EEcvRKsEv(%class.AP_ParamT.4* %_cmd_total), !dbg !7750
  %0 = load i16, i16* %call, align 2, !dbg !7750
  ret i16 %0, !dbg !7751
}

; Function Attrs: nounwind uwtable
define void @_ZN11GCS_MAVLINK22handle_mission_requestER10AP_MissionP17__mavlink_message(%class.GCS_MAVLINK* %this, %class.AP_Mission* dereferenceable(184) %mission, %struct.__mavlink_message* %msg) #0 align 2 !dbg !7752 {
entry:
  %this.addr = alloca %class.GCS_MAVLINK*, align 8
  %mission.addr = alloca %class.AP_Mission*, align 8
  %msg.addr = alloca %struct.__mavlink_message*, align 8
  %cmd = alloca %"struct.AP_Mission::Mission_Command", align 2
  %packet = alloca %struct.__mavlink_mission_request_int_t, align 1
  %ret_packet = alloca %struct.__mavlink_mission_item_int_t, align 1
  %packet16 = alloca %struct.__mavlink_mission_request_t, align 1
  %ret_packet35 = alloca %struct.__mavlink_mission_item_t, align 1
  store %class.GCS_MAVLINK* %this, %class.GCS_MAVLINK** %this.addr, align 8
  call void @llvm.dbg.declare(metadata %class.GCS_MAVLINK** %this.addr, metadata !7753, metadata !6032), !dbg !7754
  store %class.AP_Mission* %mission, %class.AP_Mission** %mission.addr, align 8
  call void @llvm.dbg.declare(metadata %class.AP_Mission** %mission.addr, metadata !7755, metadata !6032), !dbg !7756
  store %struct.__mavlink_message* %msg, %struct.__mavlink_message** %msg.addr, align 8
  call void @llvm.dbg.declare(metadata %struct.__mavlink_message** %msg.addr, metadata !7757, metadata !6032), !dbg !7758
  %this1 = load %class.GCS_MAVLINK*, %class.GCS_MAVLINK** %this.addr, align 8
  call void @llvm.dbg.declare(metadata %"struct.AP_Mission::Mission_Command"* %cmd, metadata !7759, metadata !6032), !dbg !7760
  %0 = load %struct.__mavlink_message*, %struct.__mavlink_message** %msg.addr, align 8, !dbg !7761
  %msgid = getelementptr inbounds %struct.__mavlink_message, %struct.__mavlink_message* %0, i32 0, i32 8, !dbg !7763
  %1 = bitcast [3 x i8]* %msgid to i24*, !dbg !7763
  %bf.load = load i24, i24* %1, align 1, !dbg !7763
  %bf.cast = zext i24 %bf.load to i32, !dbg !7763
  %cmp = icmp eq i32 %bf.cast, 51, !dbg !7764
  br i1 %cmp, label %if.then, label %if.else15, !dbg !7765

if.then:                                          ; preds = %entry
  call void @llvm.dbg.declare(metadata %struct.__mavlink_mission_request_int_t* %packet, metadata !7766, metadata !6032), !dbg !7776
  %2 = load %struct.__mavlink_message*, %struct.__mavlink_message** %msg.addr, align 8, !dbg !7777
  call void @_ZL38mavlink_msg_mission_request_int_decodePK17__mavlink_messageP31__mavlink_mission_request_int_t(%struct.__mavlink_message* %2, %struct.__mavlink_mission_request_int_t* %packet), !dbg !7778
  %3 = load %class.AP_Mission*, %class.AP_Mission** %mission.addr, align 8, !dbg !7779
  %seq = getelementptr inbounds %struct.__mavlink_mission_request_int_t, %struct.__mavlink_mission_request_int_t* %packet, i32 0, i32 0, !dbg !7781
  %4 = load i16, i16* %seq, align 1, !dbg !7781
  %call = call zeroext i1 @_ZNK10AP_Mission21read_cmd_from_storageEtRNS_15Mission_CommandE(%class.AP_Mission* %3, i16 zeroext %4, %"struct.AP_Mission::Mission_Command"* dereferenceable(18) %cmd), !dbg !7782
  br i1 %call, label %if.end, label %if.then2, !dbg !7783

if.then2:                                         ; preds = %if.then
  br label %mission_item_send_failed, !dbg !7784

if.end:                                           ; preds = %if.then
  call void @llvm.dbg.declare(metadata %struct.__mavlink_mission_item_int_t* %ret_packet, metadata !7786, metadata !6032), !dbg !7787
  %5 = bitcast %struct.__mavlink_mission_item_int_t* %ret_packet to i8*, !dbg !7788
  call void @llvm.memset.p0i8.i64(i8* %5, i8 0, i64 38, i32 1, i1 false), !dbg !7788
  %call3 = call zeroext i1 @_ZN10AP_Mission26mission_cmd_to_mavlink_intERKNS_15Mission_CommandER28__mavlink_mission_item_int_t(%"struct.AP_Mission::Mission_Command"* dereferenceable(18) %cmd, %struct.__mavlink_mission_item_int_t* dereferenceable(38) %ret_packet), !dbg !7789
  br i1 %call3, label %if.end5, label %if.then4, !dbg !7791

if.then4:                                         ; preds = %if.end
  br label %mission_item_send_failed, !dbg !7792

if.end5:                                          ; preds = %if.end
  %id = getelementptr inbounds %"struct.AP_Mission::Mission_Command", %"struct.AP_Mission::Mission_Command"* %cmd, i32 0, i32 1, !dbg !7794
  %6 = load i16, i16* %id, align 2, !dbg !7794
  %conv = zext i16 %6 to i32, !dbg !7796
  %7 = load %class.AP_Mission*, %class.AP_Mission** %mission.addr, align 8, !dbg !7797
  %call6 = call dereferenceable(18) %"struct.AP_Mission::Mission_Command"* @_ZNK10AP_Mission19get_current_nav_cmdEv(%class.AP_Mission* %7), !dbg !7798
  %index = getelementptr inbounds %"struct.AP_Mission::Mission_Command", %"struct.AP_Mission::Mission_Command"* %call6, i32 0, i32 0, !dbg !7799
  %8 = load i16, i16* %index, align 2, !dbg !7799
  %conv7 = zext i16 %8 to i32, !dbg !7800
  %cmp8 = icmp eq i32 %conv, %conv7, !dbg !7801
  br i1 %cmp8, label %if.then9, label %if.else, !dbg !7802

if.then9:                                         ; preds = %if.end5
  %current = getelementptr inbounds %struct.__mavlink_mission_item_int_t, %struct.__mavlink_mission_item_int_t* %ret_packet, i32 0, i32 12, !dbg !7803
  store i8 1, i8* %current, align 1, !dbg !7805
  br label %if.end11, !dbg !7806

if.else:                                          ; preds = %if.end5
  %current10 = getelementptr inbounds %struct.__mavlink_mission_item_int_t, %struct.__mavlink_mission_item_int_t* %ret_packet, i32 0, i32 12, !dbg !7807
  store i8 0, i8* %current10, align 1, !dbg !7809
  br label %if.end11

if.end11:                                         ; preds = %if.else, %if.then9
  %autocontinue = getelementptr inbounds %struct.__mavlink_mission_item_int_t, %struct.__mavlink_mission_item_int_t* %ret_packet, i32 0, i32 13, !dbg !7810
  store i8 1, i8* %autocontinue, align 1, !dbg !7811
  %9 = load %struct.__mavlink_message*, %struct.__mavlink_message** %msg.addr, align 8, !dbg !7812
  %sysid = getelementptr inbounds %struct.__mavlink_message, %struct.__mavlink_message* %9, i32 0, i32 6, !dbg !7813
  %10 = load i8, i8* %sysid, align 1, !dbg !7813
  %target_system = getelementptr inbounds %struct.__mavlink_mission_item_int_t, %struct.__mavlink_mission_item_int_t* %ret_packet, i32 0, i32 9, !dbg !7814
  store i8 %10, i8* %target_system, align 1, !dbg !7815
  %11 = load %struct.__mavlink_message*, %struct.__mavlink_message** %msg.addr, align 8, !dbg !7816
  %compid = getelementptr inbounds %struct.__mavlink_message, %struct.__mavlink_message* %11, i32 0, i32 7, !dbg !7817
  %12 = load i8, i8* %compid, align 1, !dbg !7817
  %target_component = getelementptr inbounds %struct.__mavlink_mission_item_int_t, %struct.__mavlink_mission_item_int_t* %ret_packet, i32 0, i32 10, !dbg !7818
  store i8 %12, i8* %target_component, align 1, !dbg !7819
  %seq12 = getelementptr inbounds %struct.__mavlink_mission_request_int_t, %struct.__mavlink_mission_request_int_t* %packet, i32 0, i32 0, !dbg !7820
  %13 = load i16, i16* %seq12, align 1, !dbg !7820
  %seq13 = getelementptr inbounds %struct.__mavlink_mission_item_int_t, %struct.__mavlink_mission_item_int_t* %ret_packet, i32 0, i32 7, !dbg !7821
  store i16 %13, i16* %seq13, align 1, !dbg !7822
  %id14 = getelementptr inbounds %"struct.AP_Mission::Mission_Command", %"struct.AP_Mission::Mission_Command"* %cmd, i32 0, i32 1, !dbg !7823
  %14 = load i16, i16* %id14, align 2, !dbg !7823
  %command = getelementptr inbounds %struct.__mavlink_mission_item_int_t, %struct.__mavlink_mission_item_int_t* %ret_packet, i32 0, i32 8, !dbg !7824
  store i16 %14, i16* %command, align 1, !dbg !7825
  %chan = getelementptr inbounds %class.GCS_MAVLINK, %class.GCS_MAVLINK* %this1, i32 0, i32 10, !dbg !7826
  %15 = load i32, i32* %chan, align 8, !dbg !7826
  %16 = bitcast %struct.__mavlink_mission_item_int_t* %ret_packet to i8*, !dbg !7827
  call void @_mav_finalize_message_chan_send(i32 %15, i32 73, i8* %16, i8 zeroext 37, i8 zeroext 38, i8 zeroext 38), !dbg !7828
  br label %if.end60, !dbg !7829

if.else15:                                        ; preds = %entry
  call void @llvm.dbg.declare(metadata %struct.__mavlink_mission_request_t* %packet16, metadata !7830, metadata !6032), !dbg !7832
  %17 = load %struct.__mavlink_message*, %struct.__mavlink_message** %msg.addr, align 8, !dbg !7833
  call void @_ZL34mavlink_msg_mission_request_decodePK17__mavlink_messageP27__mavlink_mission_request_t(%struct.__mavlink_message* %17, %struct.__mavlink_mission_request_t* %packet16), !dbg !7834
  %seq17 = getelementptr inbounds %struct.__mavlink_mission_request_t, %struct.__mavlink_mission_request_t* %packet16, i32 0, i32 0, !dbg !7835
  %18 = load i16, i16* %seq17, align 1, !dbg !7835
  %conv18 = zext i16 %18 to i32, !dbg !7837
  %cmp19 = icmp ne i32 %conv18, 0, !dbg !7838
  br i1 %cmp19, label %land.lhs.true, label %if.end30, !dbg !7839

land.lhs.true:                                    ; preds = %if.else15
  %seq20 = getelementptr inbounds %struct.__mavlink_mission_request_t, %struct.__mavlink_mission_request_t* %packet16, i32 0, i32 0, !dbg !7840
  %19 = load i16, i16* %seq20, align 1, !dbg !7840
  %conv21 = zext i16 %19 to i32, !dbg !7841
  %20 = load %class.AP_Mission*, %class.AP_Mission** %mission.addr, align 8, !dbg !7842
  %call22 = call zeroext i16 @_ZNK10AP_Mission12num_commandsEv(%class.AP_Mission* %20), !dbg !7843
  %conv23 = zext i16 %call22 to i32, !dbg !7842
  %cmp24 = icmp sge i32 %conv21, %conv23, !dbg !7844
  br i1 %cmp24, label %if.then25, label %if.end30, !dbg !7845

if.then25:                                        ; preds = %land.lhs.true
  %chan26 = getelementptr inbounds %class.GCS_MAVLINK, %class.GCS_MAVLINK* %this1, i32 0, i32 10, !dbg !7847
  %21 = load i32, i32* %chan26, align 8, !dbg !7847
  %22 = load %struct.__mavlink_message*, %struct.__mavlink_message** %msg.addr, align 8, !dbg !7849
  %sysid27 = getelementptr inbounds %struct.__mavlink_message, %struct.__mavlink_message* %22, i32 0, i32 6, !dbg !7850
  %23 = load i8, i8* %sysid27, align 1, !dbg !7850
  %24 = load %struct.__mavlink_message*, %struct.__mavlink_message** %msg.addr, align 8, !dbg !7851
  %compid28 = getelementptr inbounds %struct.__mavlink_message, %struct.__mavlink_message* %24, i32 0, i32 7, !dbg !7852
  %25 = load i8, i8* %compid28, align 1, !dbg !7852
  %26 = load %class.AP_Mission*, %class.AP_Mission** %mission.addr, align 8, !dbg !7853
  %call29 = call zeroext i16 @_ZNK10AP_Mission12num_commandsEv(%class.AP_Mission* %26), !dbg !7854
  call void @_ZL30mavlink_msg_mission_count_send17mavlink_channel_thhth(i32 %21, i8 zeroext %23, i8 zeroext %25, i16 zeroext %call29, i8 zeroext 0), !dbg !7855
  br label %mission_item_send_failed, !dbg !7857

if.end30:                                         ; preds = %land.lhs.true, %if.else15
  %27 = load %class.AP_Mission*, %class.AP_Mission** %mission.addr, align 8, !dbg !7858
  %seq31 = getelementptr inbounds %struct.__mavlink_mission_request_t, %struct.__mavlink_mission_request_t* %packet16, i32 0, i32 0, !dbg !7860
  %28 = load i16, i16* %seq31, align 1, !dbg !7860
  %call32 = call zeroext i1 @_ZNK10AP_Mission21read_cmd_from_storageEtRNS_15Mission_CommandE(%class.AP_Mission* %27, i16 zeroext %28, %"struct.AP_Mission::Mission_Command"* dereferenceable(18) %cmd), !dbg !7861
  br i1 %call32, label %if.end34, label %if.then33, !dbg !7862

if.then33:                                        ; preds = %if.end30
  br label %mission_item_send_failed, !dbg !7863

if.end34:                                         ; preds = %if.end30
  call void @llvm.dbg.declare(metadata %struct.__mavlink_mission_item_t* %ret_packet35, metadata !7865, metadata !6032), !dbg !7866
  %29 = bitcast %struct.__mavlink_mission_item_t* %ret_packet35 to i8*, !dbg !7867
  call void @llvm.memset.p0i8.i64(i8* %29, i8 0, i64 38, i32 1, i1 false), !dbg !7867
  %call36 = call zeroext i1 @_ZN10AP_Mission22mission_cmd_to_mavlinkERKNS_15Mission_CommandER24__mavlink_mission_item_t(%"struct.AP_Mission::Mission_Command"* dereferenceable(18) %cmd, %struct.__mavlink_mission_item_t* dereferenceable(38) %ret_packet35), !dbg !7868
  br i1 %call36, label %if.end38, label %if.then37, !dbg !7870

if.then37:                                        ; preds = %if.end34
  br label %mission_item_send_failed, !dbg !7871

if.end38:                                         ; preds = %if.end34
  %id39 = getelementptr inbounds %"struct.AP_Mission::Mission_Command", %"struct.AP_Mission::Mission_Command"* %cmd, i32 0, i32 1, !dbg !7873
  %30 = load i16, i16* %id39, align 2, !dbg !7873
  %conv40 = zext i16 %30 to i32, !dbg !7875
  %31 = load %class.AP_Mission*, %class.AP_Mission** %mission.addr, align 8, !dbg !7876
  %call41 = call dereferenceable(18) %"struct.AP_Mission::Mission_Command"* @_ZNK10AP_Mission19get_current_nav_cmdEv(%class.AP_Mission* %31), !dbg !7877
  %index42 = getelementptr inbounds %"struct.AP_Mission::Mission_Command", %"struct.AP_Mission::Mission_Command"* %call41, i32 0, i32 0, !dbg !7878
  %32 = load i16, i16* %index42, align 2, !dbg !7878
  %conv43 = zext i16 %32 to i32, !dbg !7879
  %cmp44 = icmp eq i32 %conv40, %conv43, !dbg !7880
  br i1 %cmp44, label %if.then45, label %if.else47, !dbg !7881

if.then45:                                        ; preds = %if.end38
  %current46 = getelementptr inbounds %struct.__mavlink_mission_item_t, %struct.__mavlink_mission_item_t* %ret_packet35, i32 0, i32 12, !dbg !7882
  store i8 1, i8* %current46, align 1, !dbg !7884
  br label %if.end49, !dbg !7885

if.else47:                                        ; preds = %if.end38
  %current48 = getelementptr inbounds %struct.__mavlink_mission_item_t, %struct.__mavlink_mission_item_t* %ret_packet35, i32 0, i32 12, !dbg !7886
  store i8 0, i8* %current48, align 1, !dbg !7888
  br label %if.end49

if.end49:                                         ; preds = %if.else47, %if.then45
  %autocontinue50 = getelementptr inbounds %struct.__mavlink_mission_item_t, %struct.__mavlink_mission_item_t* %ret_packet35, i32 0, i32 13, !dbg !7889
  store i8 1, i8* %autocontinue50, align 1, !dbg !7890
  %33 = load %struct.__mavlink_message*, %struct.__mavlink_message** %msg.addr, align 8, !dbg !7891
  %sysid51 = getelementptr inbounds %struct.__mavlink_message, %struct.__mavlink_message* %33, i32 0, i32 6, !dbg !7892
  %34 = load i8, i8* %sysid51, align 1, !dbg !7892
  %target_system52 = getelementptr inbounds %struct.__mavlink_mission_item_t, %struct.__mavlink_mission_item_t* %ret_packet35, i32 0, i32 9, !dbg !7893
  store i8 %34, i8* %target_system52, align 1, !dbg !7894
  %35 = load %struct.__mavlink_message*, %struct.__mavlink_message** %msg.addr, align 8, !dbg !7895
  %compid53 = getelementptr inbounds %struct.__mavlink_message, %struct.__mavlink_message* %35, i32 0, i32 7, !dbg !7896
  %36 = load i8, i8* %compid53, align 1, !dbg !7896
  %target_component54 = getelementptr inbounds %struct.__mavlink_mission_item_t, %struct.__mavlink_mission_item_t* %ret_packet35, i32 0, i32 10, !dbg !7897
  store i8 %36, i8* %target_component54, align 1, !dbg !7898
  %seq55 = getelementptr inbounds %struct.__mavlink_mission_request_t, %struct.__mavlink_mission_request_t* %packet16, i32 0, i32 0, !dbg !7899
  %37 = load i16, i16* %seq55, align 1, !dbg !7899
  %seq56 = getelementptr inbounds %struct.__mavlink_mission_item_t, %struct.__mavlink_mission_item_t* %ret_packet35, i32 0, i32 7, !dbg !7900
  store i16 %37, i16* %seq56, align 1, !dbg !7901
  %id57 = getelementptr inbounds %"struct.AP_Mission::Mission_Command", %"struct.AP_Mission::Mission_Command"* %cmd, i32 0, i32 1, !dbg !7902
  %38 = load i16, i16* %id57, align 2, !dbg !7902
  %command58 = getelementptr inbounds %struct.__mavlink_mission_item_t, %struct.__mavlink_mission_item_t* %ret_packet35, i32 0, i32 8, !dbg !7903
  store i16 %38, i16* %command58, align 1, !dbg !7904
  %chan59 = getelementptr inbounds %class.GCS_MAVLINK, %class.GCS_MAVLINK* %this1, i32 0, i32 10, !dbg !7905
  %39 = load i32, i32* %chan59, align 8, !dbg !7905
  %40 = bitcast %struct.__mavlink_mission_item_t* %ret_packet35 to i8*, !dbg !7906
  call void @_mav_finalize_message_chan_send(i32 %39, i32 39, i8* %40, i8 zeroext 37, i8 zeroext 38, i8 zeroext -2), !dbg !7907
  br label %if.end60

if.end60:                                         ; preds = %if.end49, %if.end11
  br label %return, !dbg !7908

mission_item_send_failed:                         ; preds = %if.then37, %if.then33, %if.then25, %if.then4, %if.then2
  %chan61 = getelementptr inbounds %class.GCS_MAVLINK, %class.GCS_MAVLINK* %this1, i32 0, i32 10, !dbg !7909
  %41 = load i32, i32* %chan61, align 8, !dbg !7909
  %42 = load %struct.__mavlink_message*, %struct.__mavlink_message** %msg.addr, align 8, !dbg !7910
  %sysid62 = getelementptr inbounds %struct.__mavlink_message, %struct.__mavlink_message* %42, i32 0, i32 6, !dbg !7911
  %43 = load i8, i8* %sysid62, align 1, !dbg !7911
  %44 = load %struct.__mavlink_message*, %struct.__mavlink_message** %msg.addr, align 8, !dbg !7912
  %compid63 = getelementptr inbounds %struct.__mavlink_message, %struct.__mavlink_message* %44, i32 0, i32 7, !dbg !7913
  %45 = load i8, i8* %compid63, align 1, !dbg !7913
  call void @_ZL28mavlink_msg_mission_ack_send17mavlink_channel_thhhh(i32 %41, i8 zeroext %43, i8 zeroext %45, i8 zeroext 1, i8 zeroext 0), !dbg !7914
  br label %return, !dbg !7915

return:                                           ; preds = %mission_item_send_failed, %if.end60
  ret void, !dbg !7916
}

; Function Attrs: inlinehint nounwind uwtable
define internal void @_ZL38mavlink_msg_mission_request_int_decodePK17__mavlink_messageP31__mavlink_mission_request_int_t(%struct.__mavlink_message* %msg, %struct.__mavlink_mission_request_int_t* %mission_request_int) #3 !dbg !7918 {
entry:
  %msg.addr = alloca %struct.__mavlink_message*, align 8
  %mission_request_int.addr = alloca %struct.__mavlink_mission_request_int_t*, align 8
  %len = alloca i8, align 1
  store %struct.__mavlink_message* %msg, %struct.__mavlink_message** %msg.addr, align 8
  call void @llvm.dbg.declare(metadata %struct.__mavlink_message** %msg.addr, metadata !7922, metadata !6032), !dbg !7923
  store %struct.__mavlink_mission_request_int_t* %mission_request_int, %struct.__mavlink_mission_request_int_t** %mission_request_int.addr, align 8
  call void @llvm.dbg.declare(metadata %struct.__mavlink_mission_request_int_t** %mission_request_int.addr, metadata !7924, metadata !6032), !dbg !7925
  call void @llvm.dbg.declare(metadata i8* %len, metadata !7926, metadata !6032), !dbg !7927
  %0 = load %struct.__mavlink_message*, %struct.__mavlink_message** %msg.addr, align 8, !dbg !7928
  %len1 = getelementptr inbounds %struct.__mavlink_message, %struct.__mavlink_message* %0, i32 0, i32 2, !dbg !7929
  %1 = load i8, i8* %len1, align 1, !dbg !7929
  %conv = zext i8 %1 to i32, !dbg !7928
  %cmp = icmp slt i32 %conv, 5, !dbg !7930
  br i1 %cmp, label %cond.true, label %cond.false, !dbg !7928

cond.true:                                        ; preds = %entry
  %2 = load %struct.__mavlink_message*, %struct.__mavlink_message** %msg.addr, align 8, !dbg !7931
  %len2 = getelementptr inbounds %struct.__mavlink_message, %struct.__mavlink_message* %2, i32 0, i32 2, !dbg !7933
  %3 = load i8, i8* %len2, align 1, !dbg !7933
  %conv3 = zext i8 %3 to i32, !dbg !7931
  br label %cond.end, !dbg !7934

cond.false:                                       ; preds = %entry
  br label %cond.end, !dbg !7935

cond.end:                                         ; preds = %cond.false, %cond.true
  %cond = phi i32 [ %conv3, %cond.true ], [ 5, %cond.false ], !dbg !7937
  %conv4 = trunc i32 %cond to i8, !dbg !7937
  store i8 %conv4, i8* %len, align 1, !dbg !7939
  %4 = load %struct.__mavlink_mission_request_int_t*, %struct.__mavlink_mission_request_int_t** %mission_request_int.addr, align 8, !dbg !7940
  %5 = bitcast %struct.__mavlink_mission_request_int_t* %4 to i8*, !dbg !7941
  call void @llvm.memset.p0i8.i64(i8* %5, i8 0, i64 5, i32 1, i1 false), !dbg !7941
  %6 = load %struct.__mavlink_mission_request_int_t*, %struct.__mavlink_mission_request_int_t** %mission_request_int.addr, align 8, !dbg !7942
  %7 = bitcast %struct.__mavlink_mission_request_int_t* %6 to i8*, !dbg !7943
  %8 = load %struct.__mavlink_message*, %struct.__mavlink_message** %msg.addr, align 8, !dbg !7944
  %payload64 = getelementptr inbounds %struct.__mavlink_message, %struct.__mavlink_message* %8, i32 0, i32 9, !dbg !7944
  %arrayidx = getelementptr inbounds [33 x i64], [33 x i64]* %payload64, i64 0, i64 0, !dbg !7944
  %9 = bitcast i64* %arrayidx to i8*, !dbg !7943
  %10 = load i8, i8* %len, align 1, !dbg !7945
  %conv5 = zext i8 %10 to i64, !dbg !7945
  call void @llvm.memcpy.p0i8.p0i8.i64(i8* %7, i8* %9, i64 %conv5, i32 1, i1 false), !dbg !7943
  ret void, !dbg !7946
}

declare zeroext i1 @_ZNK10AP_Mission21read_cmd_from_storageEtRNS_15Mission_CommandE(%class.AP_Mission*, i16 zeroext, %"struct.AP_Mission::Mission_Command"* dereferenceable(18)) #4

declare zeroext i1 @_ZN10AP_Mission26mission_cmd_to_mavlink_intERKNS_15Mission_CommandER28__mavlink_mission_item_int_t(%"struct.AP_Mission::Mission_Command"* dereferenceable(18), %struct.__mavlink_mission_item_int_t* dereferenceable(38)) #4

; Function Attrs: nounwind uwtable
define linkonce_odr dereferenceable(18) %"struct.AP_Mission::Mission_Command"* @_ZNK10AP_Mission19get_current_nav_cmdEv(%class.AP_Mission* %this) #0 comdat align 2 !dbg !7947 {
entry:
  %this.addr = alloca %class.AP_Mission*, align 8
  store %class.AP_Mission* %this, %class.AP_Mission** %this.addr, align 8
  call void @llvm.dbg.declare(metadata %class.AP_Mission** %this.addr, metadata !7948, metadata !6032), !dbg !7949
  %this1 = load %class.AP_Mission*, %class.AP_Mission** %this.addr, align 8
  %_nav_cmd = getelementptr inbounds %class.AP_Mission, %class.AP_Mission* %this1, i32 0, i32 10, !dbg !7950
  ret %"struct.AP_Mission::Mission_Command"* %_nav_cmd, !dbg !7951
}

declare void @_mav_finalize_message_chan_send(i32, i32, i8*, i8 zeroext, i8 zeroext, i8 zeroext) #4

; Function Attrs: inlinehint nounwind uwtable
define internal void @_ZL34mavlink_msg_mission_request_decodePK17__mavlink_messageP27__mavlink_mission_request_t(%struct.__mavlink_message* %msg, %struct.__mavlink_mission_request_t* %mission_request) #3 !dbg !7952 {
entry:
  %msg.addr = alloca %struct.__mavlink_message*, align 8
  %mission_request.addr = alloca %struct.__mavlink_mission_request_t*, align 8
  %len = alloca i8, align 1
  store %struct.__mavlink_message* %msg, %struct.__mavlink_message** %msg.addr, align 8
  call void @llvm.dbg.declare(metadata %struct.__mavlink_message** %msg.addr, metadata !7956, metadata !6032), !dbg !7957
  store %struct.__mavlink_mission_request_t* %mission_request, %struct.__mavlink_mission_request_t** %mission_request.addr, align 8
  call void @llvm.dbg.declare(metadata %struct.__mavlink_mission_request_t** %mission_request.addr, metadata !7958, metadata !6032), !dbg !7959
  call void @llvm.dbg.declare(metadata i8* %len, metadata !7960, metadata !6032), !dbg !7961
  %0 = load %struct.__mavlink_message*, %struct.__mavlink_message** %msg.addr, align 8, !dbg !7962
  %len1 = getelementptr inbounds %struct.__mavlink_message, %struct.__mavlink_message* %0, i32 0, i32 2, !dbg !7963
  %1 = load i8, i8* %len1, align 1, !dbg !7963
  %conv = zext i8 %1 to i32, !dbg !7962
  %cmp = icmp slt i32 %conv, 5, !dbg !7964
  br i1 %cmp, label %cond.true, label %cond.false, !dbg !7962

cond.true:                                        ; preds = %entry
  %2 = load %struct.__mavlink_message*, %struct.__mavlink_message** %msg.addr, align 8, !dbg !7965
  %len2 = getelementptr inbounds %struct.__mavlink_message, %struct.__mavlink_message* %2, i32 0, i32 2, !dbg !7967
  %3 = load i8, i8* %len2, align 1, !dbg !7967
  %conv3 = zext i8 %3 to i32, !dbg !7965
  br label %cond.end, !dbg !7968

cond.false:                                       ; preds = %entry
  br label %cond.end, !dbg !7969

cond.end:                                         ; preds = %cond.false, %cond.true
  %cond = phi i32 [ %conv3, %cond.true ], [ 5, %cond.false ], !dbg !7971
  %conv4 = trunc i32 %cond to i8, !dbg !7971
  store i8 %conv4, i8* %len, align 1, !dbg !7973
  %4 = load %struct.__mavlink_mission_request_t*, %struct.__mavlink_mission_request_t** %mission_request.addr, align 8, !dbg !7974
  %5 = bitcast %struct.__mavlink_mission_request_t* %4 to i8*, !dbg !7975
  call void @llvm.memset.p0i8.i64(i8* %5, i8 0, i64 5, i32 1, i1 false), !dbg !7975
  %6 = load %struct.__mavlink_mission_request_t*, %struct.__mavlink_mission_request_t** %mission_request.addr, align 8, !dbg !7976
  %7 = bitcast %struct.__mavlink_mission_request_t* %6 to i8*, !dbg !7977
  %8 = load %struct.__mavlink_message*, %struct.__mavlink_message** %msg.addr, align 8, !dbg !7978
  %payload64 = getelementptr inbounds %struct.__mavlink_message, %struct.__mavlink_message* %8, i32 0, i32 9, !dbg !7978
  %arrayidx = getelementptr inbounds [33 x i64], [33 x i64]* %payload64, i64 0, i64 0, !dbg !7978
  %9 = bitcast i64* %arrayidx to i8*, !dbg !7977
  %10 = load i8, i8* %len, align 1, !dbg !7979
  %conv5 = zext i8 %10 to i64, !dbg !7979
  call void @llvm.memcpy.p0i8.p0i8.i64(i8* %7, i8* %9, i64 %conv5, i32 1, i1 false), !dbg !7977
  ret void, !dbg !7980
}

declare zeroext i1 @_ZN10AP_Mission22mission_cmd_to_mavlinkERKNS_15Mission_CommandER24__mavlink_mission_item_t(%"struct.AP_Mission::Mission_Command"* dereferenceable(18), %struct.__mavlink_mission_item_t* dereferenceable(38)) #4

; Function Attrs: inlinehint nounwind uwtable
define internal void @_ZL28mavlink_msg_mission_ack_send17mavlink_channel_thhhh(i32 %chan, i8 zeroext %target_system, i8 zeroext %target_component, i8 zeroext %type, i8 zeroext %mission_type) #3 !dbg !7981 {
entry:
  %chan.addr = alloca i32, align 4
  %target_system.addr = alloca i8, align 1
  %target_component.addr = alloca i8, align 1
  %type.addr = alloca i8, align 1
  %mission_type.addr = alloca i8, align 1
  %packet = alloca %struct.__mavlink_mission_ack_t, align 1
  store i32 %chan, i32* %chan.addr, align 4
  call void @llvm.dbg.declare(metadata i32* %chan.addr, metadata !7984, metadata !6032), !dbg !7985
  store i8 %target_system, i8* %target_system.addr, align 1
  call void @llvm.dbg.declare(metadata i8* %target_system.addr, metadata !7986, metadata !6032), !dbg !7987
  store i8 %target_component, i8* %target_component.addr, align 1
  call void @llvm.dbg.declare(metadata i8* %target_component.addr, metadata !7988, metadata !6032), !dbg !7989
  store i8 %type, i8* %type.addr, align 1
  call void @llvm.dbg.declare(metadata i8* %type.addr, metadata !7990, metadata !6032), !dbg !7991
  store i8 %mission_type, i8* %mission_type.addr, align 1
  call void @llvm.dbg.declare(metadata i8* %mission_type.addr, metadata !7992, metadata !6032), !dbg !7993
  call void @llvm.dbg.declare(metadata %struct.__mavlink_mission_ack_t* %packet, metadata !7994, metadata !6032), !dbg !7995
  %0 = load i8, i8* %target_system.addr, align 1, !dbg !7996
  %target_system1 = getelementptr inbounds %struct.__mavlink_mission_ack_t, %struct.__mavlink_mission_ack_t* %packet, i32 0, i32 0, !dbg !7997
  store i8 %0, i8* %target_system1, align 1, !dbg !7998
  %1 = load i8, i8* %target_component.addr, align 1, !dbg !7999
  %target_component2 = getelementptr inbounds %struct.__mavlink_mission_ack_t, %struct.__mavlink_mission_ack_t* %packet, i32 0, i32 1, !dbg !8000
  store i8 %1, i8* %target_component2, align 1, !dbg !8001
  %2 = load i8, i8* %type.addr, align 1, !dbg !8002
  %type3 = getelementptr inbounds %struct.__mavlink_mission_ack_t, %struct.__mavlink_mission_ack_t* %packet, i32 0, i32 2, !dbg !8003
  store i8 %2, i8* %type3, align 1, !dbg !8004
  %3 = load i8, i8* %mission_type.addr, align 1, !dbg !8005
  %mission_type4 = getelementptr inbounds %struct.__mavlink_mission_ack_t, %struct.__mavlink_mission_ack_t* %packet, i32 0, i32 3, !dbg !8006
  store i8 %3, i8* %mission_type4, align 1, !dbg !8007
  %4 = load i32, i32* %chan.addr, align 4, !dbg !8008
  %5 = bitcast %struct.__mavlink_mission_ack_t* %packet to i8*, !dbg !8009
  call void @_mav_finalize_message_chan_send(i32 %4, i32 47, i8* %5, i8 zeroext 3, i8 zeroext 4, i8 zeroext -103), !dbg !8010
  ret void, !dbg !8011
}

; Function Attrs: nounwind uwtable
define void @_ZN11GCS_MAVLINK26handle_mission_set_currentER10AP_MissionP17__mavlink_message(%class.GCS_MAVLINK* %this, %class.AP_Mission* dereferenceable(184) %mission, %struct.__mavlink_message* %msg) unnamed_addr #0 align 2 !dbg !8012 {
entry:
  %this.addr = alloca %class.GCS_MAVLINK*, align 8
  %mission.addr = alloca %class.AP_Mission*, align 8
  %msg.addr = alloca %struct.__mavlink_message*, align 8
  %packet = alloca %struct.__mavlink_mission_set_current_t, align 1
  store %class.GCS_MAVLINK* %this, %class.GCS_MAVLINK** %this.addr, align 8
  call void @llvm.dbg.declare(metadata %class.GCS_MAVLINK** %this.addr, metadata !8013, metadata !6032), !dbg !8014
  store %class.AP_Mission* %mission, %class.AP_Mission** %mission.addr, align 8
  call void @llvm.dbg.declare(metadata %class.AP_Mission** %mission.addr, metadata !8015, metadata !6032), !dbg !8016
  store %struct.__mavlink_message* %msg, %struct.__mavlink_message** %msg.addr, align 8
  call void @llvm.dbg.declare(metadata %struct.__mavlink_message** %msg.addr, metadata !8017, metadata !6032), !dbg !8018
  %this1 = load %class.GCS_MAVLINK*, %class.GCS_MAVLINK** %this.addr, align 8
  call void @llvm.dbg.declare(metadata %struct.__mavlink_mission_set_current_t* %packet, metadata !8019, metadata !6032), !dbg !8027
  %0 = load %struct.__mavlink_message*, %struct.__mavlink_message** %msg.addr, align 8, !dbg !8028
  call void @_ZL38mavlink_msg_mission_set_current_decodePK17__mavlink_messageP31__mavlink_mission_set_current_t(%struct.__mavlink_message* %0, %struct.__mavlink_mission_set_current_t* %packet), !dbg !8029
  %1 = load %class.AP_Mission*, %class.AP_Mission** %mission.addr, align 8, !dbg !8030
  %seq = getelementptr inbounds %struct.__mavlink_mission_set_current_t, %struct.__mavlink_mission_set_current_t* %packet, i32 0, i32 0, !dbg !8032
  %2 = load i16, i16* %seq, align 1, !dbg !8032
  %call = call zeroext i1 @_ZN10AP_Mission15set_current_cmdEt(%class.AP_Mission* %1, i16 zeroext %2), !dbg !8033
  br i1 %call, label %if.then, label %if.end, !dbg !8034

if.then:                                          ; preds = %entry
  %chan = getelementptr inbounds %class.GCS_MAVLINK, %class.GCS_MAVLINK* %this1, i32 0, i32 10, !dbg !8035
  %3 = load i32, i32* %chan, align 8, !dbg !8035
  %seq2 = getelementptr inbounds %struct.__mavlink_mission_set_current_t, %struct.__mavlink_mission_set_current_t* %packet, i32 0, i32 0, !dbg !8037
  %4 = load i16, i16* %seq2, align 1, !dbg !8037
  call void @_ZL32mavlink_msg_mission_current_send17mavlink_channel_tt(i32 %3, i16 zeroext %4), !dbg !8038
  br label %if.end, !dbg !8039

if.end:                                           ; preds = %if.then, %entry
  ret void, !dbg !8040
}

; Function Attrs: inlinehint nounwind uwtable
define internal void @_ZL38mavlink_msg_mission_set_current_decodePK17__mavlink_messageP31__mavlink_mission_set_current_t(%struct.__mavlink_message* %msg, %struct.__mavlink_mission_set_current_t* %mission_set_current) #3 !dbg !8041 {
entry:
  %msg.addr = alloca %struct.__mavlink_message*, align 8
  %mission_set_current.addr = alloca %struct.__mavlink_mission_set_current_t*, align 8
  %len = alloca i8, align 1
  store %struct.__mavlink_message* %msg, %struct.__mavlink_message** %msg.addr, align 8
  call void @llvm.dbg.declare(metadata %struct.__mavlink_message** %msg.addr, metadata !8045, metadata !6032), !dbg !8046
  store %struct.__mavlink_mission_set_current_t* %mission_set_current, %struct.__mavlink_mission_set_current_t** %mission_set_current.addr, align 8
  call void @llvm.dbg.declare(metadata %struct.__mavlink_mission_set_current_t** %mission_set_current.addr, metadata !8047, metadata !6032), !dbg !8048
  call void @llvm.dbg.declare(metadata i8* %len, metadata !8049, metadata !6032), !dbg !8050
  %0 = load %struct.__mavlink_message*, %struct.__mavlink_message** %msg.addr, align 8, !dbg !8051
  %len1 = getelementptr inbounds %struct.__mavlink_message, %struct.__mavlink_message* %0, i32 0, i32 2, !dbg !8052
  %1 = load i8, i8* %len1, align 1, !dbg !8052
  %conv = zext i8 %1 to i32, !dbg !8051
  %cmp = icmp slt i32 %conv, 4, !dbg !8053
  br i1 %cmp, label %cond.true, label %cond.false, !dbg !8051

cond.true:                                        ; preds = %entry
  %2 = load %struct.__mavlink_message*, %struct.__mavlink_message** %msg.addr, align 8, !dbg !8054
  %len2 = getelementptr inbounds %struct.__mavlink_message, %struct.__mavlink_message* %2, i32 0, i32 2, !dbg !8056
  %3 = load i8, i8* %len2, align 1, !dbg !8056
  %conv3 = zext i8 %3 to i32, !dbg !8054
  br label %cond.end, !dbg !8057

cond.false:                                       ; preds = %entry
  br label %cond.end, !dbg !8058

cond.end:                                         ; preds = %cond.false, %cond.true
  %cond = phi i32 [ %conv3, %cond.true ], [ 4, %cond.false ], !dbg !8060
  %conv4 = trunc i32 %cond to i8, !dbg !8060
  store i8 %conv4, i8* %len, align 1, !dbg !8062
  %4 = load %struct.__mavlink_mission_set_current_t*, %struct.__mavlink_mission_set_current_t** %mission_set_current.addr, align 8, !dbg !8063
  %5 = bitcast %struct.__mavlink_mission_set_current_t* %4 to i8*, !dbg !8064
  call void @llvm.memset.p0i8.i64(i8* %5, i8 0, i64 4, i32 1, i1 false), !dbg !8064
  %6 = load %struct.__mavlink_mission_set_current_t*, %struct.__mavlink_mission_set_current_t** %mission_set_current.addr, align 8, !dbg !8065
  %7 = bitcast %struct.__mavlink_mission_set_current_t* %6 to i8*, !dbg !8066
  %8 = load %struct.__mavlink_message*, %struct.__mavlink_message** %msg.addr, align 8, !dbg !8067
  %payload64 = getelementptr inbounds %struct.__mavlink_message, %struct.__mavlink_message* %8, i32 0, i32 9, !dbg !8067
  %arrayidx = getelementptr inbounds [33 x i64], [33 x i64]* %payload64, i64 0, i64 0, !dbg !8067
  %9 = bitcast i64* %arrayidx to i8*, !dbg !8066
  %10 = load i8, i8* %len, align 1, !dbg !8068
  %conv5 = zext i8 %10 to i64, !dbg !8068
  call void @llvm.memcpy.p0i8.p0i8.i64(i8* %7, i8* %9, i64 %conv5, i32 1, i1 false), !dbg !8066
  ret void, !dbg !8069
}

declare zeroext i1 @_ZN10AP_Mission15set_current_cmdEt(%class.AP_Mission*, i16 zeroext) #4

; Function Attrs: inlinehint nounwind uwtable
define internal void @_ZL32mavlink_msg_mission_current_send17mavlink_channel_tt(i32 %chan, i16 zeroext %seq) #3 !dbg !8070 {
entry:
  %chan.addr = alloca i32, align 4
  %seq.addr = alloca i16, align 2
  %packet = alloca %struct.__mavlink_mission_current_t, align 1
  store i32 %chan, i32* %chan.addr, align 4
  call void @llvm.dbg.declare(metadata i32* %chan.addr, metadata !8074, metadata !6032), !dbg !8075
  store i16 %seq, i16* %seq.addr, align 2
  call void @llvm.dbg.declare(metadata i16* %seq.addr, metadata !8076, metadata !6032), !dbg !8077
  call void @llvm.dbg.declare(metadata %struct.__mavlink_mission_current_t* %packet, metadata !8078, metadata !6032), !dbg !8083
  %0 = load i16, i16* %seq.addr, align 2, !dbg !8084
  %seq1 = getelementptr inbounds %struct.__mavlink_mission_current_t, %struct.__mavlink_mission_current_t* %packet, i32 0, i32 0, !dbg !8085
  store i16 %0, i16* %seq1, align 1, !dbg !8086
  %1 = load i32, i32* %chan.addr, align 4, !dbg !8087
  %2 = bitcast %struct.__mavlink_mission_current_t* %packet to i8*, !dbg !8088
  call void @_mav_finalize_message_chan_send(i32 %1, i32 42, i8* %2, i8 zeroext 2, i8 zeroext 2, i8 zeroext 28), !dbg !8089
  ret void, !dbg !8090
}

; Function Attrs: nounwind uwtable
define void @_ZN11GCS_MAVLINK20handle_mission_countER10AP_MissionP17__mavlink_message(%class.GCS_MAVLINK* %this, %class.AP_Mission* dereferenceable(184) %mission, %struct.__mavlink_message* %msg) #0 align 2 !dbg !8091 {
entry:
  %this.addr = alloca %class.GCS_MAVLINK*, align 8
  %mission.addr = alloca %class.AP_Mission*, align 8
  %msg.addr = alloca %struct.__mavlink_message*, align 8
  %packet = alloca %struct.__mavlink_mission_count_t, align 1
  store %class.GCS_MAVLINK* %this, %class.GCS_MAVLINK** %this.addr, align 8
  call void @llvm.dbg.declare(metadata %class.GCS_MAVLINK** %this.addr, metadata !8092, metadata !6032), !dbg !8093
  store %class.AP_Mission* %mission, %class.AP_Mission** %mission.addr, align 8
  call void @llvm.dbg.declare(metadata %class.AP_Mission** %mission.addr, metadata !8094, metadata !6032), !dbg !8095
  store %struct.__mavlink_message* %msg, %struct.__mavlink_message** %msg.addr, align 8
  call void @llvm.dbg.declare(metadata %struct.__mavlink_message** %msg.addr, metadata !8096, metadata !6032), !dbg !8097
  %this1 = load %class.GCS_MAVLINK*, %class.GCS_MAVLINK** %this.addr, align 8
  call void @llvm.dbg.declare(metadata %struct.__mavlink_mission_count_t* %packet, metadata !8098, metadata !6032), !dbg !8099
  %0 = load %struct.__mavlink_message*, %struct.__mavlink_message** %msg.addr, align 8, !dbg !8100
  call void @_ZL32mavlink_msg_mission_count_decodePK17__mavlink_messageP25__mavlink_mission_count_t(%struct.__mavlink_message* %0, %struct.__mavlink_mission_count_t* %packet), !dbg !8101
  %count = getelementptr inbounds %struct.__mavlink_mission_count_t, %struct.__mavlink_mission_count_t* %packet, i32 0, i32 0, !dbg !8102
  %1 = load i16, i16* %count, align 1, !dbg !8102
  %conv = zext i16 %1 to i32, !dbg !8104
  %2 = load %class.AP_Mission*, %class.AP_Mission** %mission.addr, align 8, !dbg !8105
  %call = call zeroext i16 @_ZNK10AP_Mission16num_commands_maxEv(%class.AP_Mission* %2), !dbg !8106
  %conv2 = zext i16 %call to i32, !dbg !8105
  %cmp = icmp sgt i32 %conv, %conv2, !dbg !8107
  br i1 %cmp, label %if.then, label %if.end, !dbg !8108

if.then:                                          ; preds = %entry
  %chan = getelementptr inbounds %class.GCS_MAVLINK, %class.GCS_MAVLINK* %this1, i32 0, i32 10, !dbg !8109
  %3 = load i32, i32* %chan, align 8, !dbg !8109
  %4 = load %struct.__mavlink_message*, %struct.__mavlink_message** %msg.addr, align 8, !dbg !8111
  %sysid = getelementptr inbounds %struct.__mavlink_message, %struct.__mavlink_message* %4, i32 0, i32 6, !dbg !8112
  %5 = load i8, i8* %sysid, align 1, !dbg !8112
  %6 = load %struct.__mavlink_message*, %struct.__mavlink_message** %msg.addr, align 8, !dbg !8113
  %compid = getelementptr inbounds %struct.__mavlink_message, %struct.__mavlink_message* %6, i32 0, i32 7, !dbg !8114
  %7 = load i8, i8* %compid, align 1, !dbg !8114
  call void @_ZL28mavlink_msg_mission_ack_send17mavlink_channel_thhhh(i32 %3, i8 zeroext %5, i8 zeroext %7, i8 zeroext 4, i8 zeroext 0), !dbg !8115
  br label %return, !dbg !8116

if.end:                                           ; preds = %entry
  %8 = load %class.AP_Mission*, %class.AP_Mission** %mission.addr, align 8, !dbg !8117
  %count3 = getelementptr inbounds %struct.__mavlink_mission_count_t, %struct.__mavlink_mission_count_t* %packet, i32 0, i32 0, !dbg !8118
  %9 = load i16, i16* %count3, align 1, !dbg !8118
  call void @_ZN10AP_Mission8truncateEt(%class.AP_Mission* %8, i16 zeroext %9), !dbg !8119
  %call4 = call i32 @_ZN6AP_HAL6millisEv(), !dbg !8120
  %waypoint_timelast_receive = getelementptr inbounds %class.GCS_MAVLINK, %class.GCS_MAVLINK* %this1, i32 0, i32 25, !dbg !8121
  store i32 %call4, i32* %waypoint_timelast_receive, align 8, !dbg !8122
  %waypoint_receiving = getelementptr inbounds %class.GCS_MAVLINK, %class.GCS_MAVLINK* %this1, i32 0, i32 5, !dbg !8123
  store i8 1, i8* %waypoint_receiving, align 2, !dbg !8124
  %waypoint_request_i = getelementptr inbounds %class.GCS_MAVLINK, %class.GCS_MAVLINK* %this1, i32 0, i32 7, !dbg !8125
  store i16 0, i16* %waypoint_request_i, align 4, !dbg !8126
  %count5 = getelementptr inbounds %struct.__mavlink_mission_count_t, %struct.__mavlink_mission_count_t* %packet, i32 0, i32 0, !dbg !8127
  %10 = load i16, i16* %count5, align 1, !dbg !8127
  %waypoint_request_last = getelementptr inbounds %class.GCS_MAVLINK, %class.GCS_MAVLINK* %this1, i32 0, i32 8, !dbg !8128
  store i16 %10, i16* %waypoint_request_last, align 2, !dbg !8129
  %waypoint_timelast_request = getelementptr inbounds %class.GCS_MAVLINK, %class.GCS_MAVLINK* %this1, i32 0, i32 26, !dbg !8130
  store i32 0, i32* %waypoint_timelast_request, align 4, !dbg !8131
  %11 = load %struct.__mavlink_message*, %struct.__mavlink_message** %msg.addr, align 8, !dbg !8132
  %sysid6 = getelementptr inbounds %struct.__mavlink_message, %struct.__mavlink_message* %11, i32 0, i32 6, !dbg !8133
  %12 = load i8, i8* %sysid6, align 1, !dbg !8133
  %conv7 = zext i8 %12 to i16, !dbg !8132
  %waypoint_dest_sysid = getelementptr inbounds %class.GCS_MAVLINK, %class.GCS_MAVLINK* %this1, i32 0, i32 22, !dbg !8134
  store i16 %conv7, i16* %waypoint_dest_sysid, align 2, !dbg !8135
  %13 = load %struct.__mavlink_message*, %struct.__mavlink_message** %msg.addr, align 8, !dbg !8136
  %compid8 = getelementptr inbounds %struct.__mavlink_message, %struct.__mavlink_message* %13, i32 0, i32 7, !dbg !8137
  %14 = load i8, i8* %compid8, align 1, !dbg !8137
  %conv9 = zext i8 %14 to i16, !dbg !8136
  %waypoint_dest_compid = getelementptr inbounds %class.GCS_MAVLINK, %class.GCS_MAVLINK* %this1, i32 0, i32 23, !dbg !8138
  store i16 %conv9, i16* %waypoint_dest_compid, align 4, !dbg !8139
  br label %return, !dbg !8140

return:                                           ; preds = %if.end, %if.then
  ret void, !dbg !8141
}

; Function Attrs: inlinehint nounwind uwtable
define internal void @_ZL32mavlink_msg_mission_count_decodePK17__mavlink_messageP25__mavlink_mission_count_t(%struct.__mavlink_message* %msg, %struct.__mavlink_mission_count_t* %mission_count) #3 !dbg !8143 {
entry:
  %msg.addr = alloca %struct.__mavlink_message*, align 8
  %mission_count.addr = alloca %struct.__mavlink_mission_count_t*, align 8
  %len = alloca i8, align 1
  store %struct.__mavlink_message* %msg, %struct.__mavlink_message** %msg.addr, align 8
  call void @llvm.dbg.declare(metadata %struct.__mavlink_message** %msg.addr, metadata !8147, metadata !6032), !dbg !8148
  store %struct.__mavlink_mission_count_t* %mission_count, %struct.__mavlink_mission_count_t** %mission_count.addr, align 8
  call void @llvm.dbg.declare(metadata %struct.__mavlink_mission_count_t** %mission_count.addr, metadata !8149, metadata !6032), !dbg !8150
  call void @llvm.dbg.declare(metadata i8* %len, metadata !8151, metadata !6032), !dbg !8152
  %0 = load %struct.__mavlink_message*, %struct.__mavlink_message** %msg.addr, align 8, !dbg !8153
  %len1 = getelementptr inbounds %struct.__mavlink_message, %struct.__mavlink_message* %0, i32 0, i32 2, !dbg !8154
  %1 = load i8, i8* %len1, align 1, !dbg !8154
  %conv = zext i8 %1 to i32, !dbg !8153
  %cmp = icmp slt i32 %conv, 5, !dbg !8155
  br i1 %cmp, label %cond.true, label %cond.false, !dbg !8153

cond.true:                                        ; preds = %entry
  %2 = load %struct.__mavlink_message*, %struct.__mavlink_message** %msg.addr, align 8, !dbg !8156
  %len2 = getelementptr inbounds %struct.__mavlink_message, %struct.__mavlink_message* %2, i32 0, i32 2, !dbg !8158
  %3 = load i8, i8* %len2, align 1, !dbg !8158
  %conv3 = zext i8 %3 to i32, !dbg !8156
  br label %cond.end, !dbg !8159

cond.false:                                       ; preds = %entry
  br label %cond.end, !dbg !8160

cond.end:                                         ; preds = %cond.false, %cond.true
  %cond = phi i32 [ %conv3, %cond.true ], [ 5, %cond.false ], !dbg !8162
  %conv4 = trunc i32 %cond to i8, !dbg !8162
  store i8 %conv4, i8* %len, align 1, !dbg !8164
  %4 = load %struct.__mavlink_mission_count_t*, %struct.__mavlink_mission_count_t** %mission_count.addr, align 8, !dbg !8165
  %5 = bitcast %struct.__mavlink_mission_count_t* %4 to i8*, !dbg !8166
  call void @llvm.memset.p0i8.i64(i8* %5, i8 0, i64 5, i32 1, i1 false), !dbg !8166
  %6 = load %struct.__mavlink_mission_count_t*, %struct.__mavlink_mission_count_t** %mission_count.addr, align 8, !dbg !8167
  %7 = bitcast %struct.__mavlink_mission_count_t* %6 to i8*, !dbg !8168
  %8 = load %struct.__mavlink_message*, %struct.__mavlink_message** %msg.addr, align 8, !dbg !8169
  %payload64 = getelementptr inbounds %struct.__mavlink_message, %struct.__mavlink_message* %8, i32 0, i32 9, !dbg !8169
  %arrayidx = getelementptr inbounds [33 x i64], [33 x i64]* %payload64, i64 0, i64 0, !dbg !8169
  %9 = bitcast i64* %arrayidx to i8*, !dbg !8168
  %10 = load i8, i8* %len, align 1, !dbg !8170
  %conv5 = zext i8 %10 to i64, !dbg !8170
  call void @llvm.memcpy.p0i8.p0i8.i64(i8* %7, i8* %9, i64 %conv5, i32 1, i1 false), !dbg !8168
  ret void, !dbg !8171
}

declare zeroext i16 @_ZNK10AP_Mission16num_commands_maxEv(%class.AP_Mission*) #4

declare void @_ZN10AP_Mission8truncateEt(%class.AP_Mission*, i16 zeroext) #4

; Function Attrs: nounwind uwtable
define void @_ZN11GCS_MAVLINK24handle_mission_clear_allER10AP_MissionP17__mavlink_message(%class.GCS_MAVLINK* %this, %class.AP_Mission* dereferenceable(184) %mission, %struct.__mavlink_message* %msg) #0 align 2 !dbg !8172 {
entry:
  %this.addr = alloca %class.GCS_MAVLINK*, align 8
  %mission.addr = alloca %class.AP_Mission*, align 8
  %msg.addr = alloca %struct.__mavlink_message*, align 8
  %packet = alloca %struct.__mavlink_mission_clear_all_t, align 1
  store %class.GCS_MAVLINK* %this, %class.GCS_MAVLINK** %this.addr, align 8
  call void @llvm.dbg.declare(metadata %class.GCS_MAVLINK** %this.addr, metadata !8173, metadata !6032), !dbg !8174
  store %class.AP_Mission* %mission, %class.AP_Mission** %mission.addr, align 8
  call void @llvm.dbg.declare(metadata %class.AP_Mission** %mission.addr, metadata !8175, metadata !6032), !dbg !8176
  store %struct.__mavlink_message* %msg, %struct.__mavlink_message** %msg.addr, align 8
  call void @llvm.dbg.declare(metadata %struct.__mavlink_message** %msg.addr, metadata !8177, metadata !6032), !dbg !8178
  %this1 = load %class.GCS_MAVLINK*, %class.GCS_MAVLINK** %this.addr, align 8
  call void @llvm.dbg.declare(metadata %struct.__mavlink_mission_clear_all_t* %packet, metadata !8179, metadata !6032), !dbg !8187
  %0 = load %struct.__mavlink_message*, %struct.__mavlink_message** %msg.addr, align 8, !dbg !8188
  call void @_ZL36mavlink_msg_mission_clear_all_decodePK17__mavlink_messageP29__mavlink_mission_clear_all_t(%struct.__mavlink_message* %0, %struct.__mavlink_mission_clear_all_t* %packet), !dbg !8189
  %1 = load %class.AP_Mission*, %class.AP_Mission** %mission.addr, align 8, !dbg !8190
  %call = call zeroext i1 @_ZN10AP_Mission5clearEv(%class.AP_Mission* %1), !dbg !8192
  br i1 %call, label %if.then, label %if.else, !dbg !8193

if.then:                                          ; preds = %entry
  %chan = getelementptr inbounds %class.GCS_MAVLINK, %class.GCS_MAVLINK* %this1, i32 0, i32 10, !dbg !8194
  %2 = load i32, i32* %chan, align 8, !dbg !8194
  %3 = load %struct.__mavlink_message*, %struct.__mavlink_message** %msg.addr, align 8, !dbg !8196
  %sysid = getelementptr inbounds %struct.__mavlink_message, %struct.__mavlink_message* %3, i32 0, i32 6, !dbg !8197
  %4 = load i8, i8* %sysid, align 1, !dbg !8197
  %5 = load %struct.__mavlink_message*, %struct.__mavlink_message** %msg.addr, align 8, !dbg !8198
  %compid = getelementptr inbounds %struct.__mavlink_message, %struct.__mavlink_message* %5, i32 0, i32 7, !dbg !8199
  %6 = load i8, i8* %compid, align 1, !dbg !8199
  call void @_ZL28mavlink_msg_mission_ack_send17mavlink_channel_thhhh(i32 %2, i8 zeroext %4, i8 zeroext %6, i8 zeroext 0, i8 zeroext 0), !dbg !8200
  br label %if.end, !dbg !8201

if.else:                                          ; preds = %entry
  %chan2 = getelementptr inbounds %class.GCS_MAVLINK, %class.GCS_MAVLINK* %this1, i32 0, i32 10, !dbg !8202
  %7 = load i32, i32* %chan2, align 8, !dbg !8202
  %8 = load %struct.__mavlink_message*, %struct.__mavlink_message** %msg.addr, align 8, !dbg !8204
  %sysid3 = getelementptr inbounds %struct.__mavlink_message, %struct.__mavlink_message* %8, i32 0, i32 6, !dbg !8205
  %9 = load i8, i8* %sysid3, align 1, !dbg !8205
  %10 = load %struct.__mavlink_message*, %struct.__mavlink_message** %msg.addr, align 8, !dbg !8206
  %compid4 = getelementptr inbounds %struct.__mavlink_message, %struct.__mavlink_message* %10, i32 0, i32 7, !dbg !8207
  %11 = load i8, i8* %compid4, align 1, !dbg !8207
  call void @_ZL28mavlink_msg_mission_ack_send17mavlink_channel_thhhh(i32 %7, i8 zeroext %9, i8 zeroext %11, i8 zeroext 1, i8 zeroext 0), !dbg !8208
  br label %if.end

if.end:                                           ; preds = %if.else, %if.then
  ret void, !dbg !8209
}

; Function Attrs: inlinehint nounwind uwtable
define internal void @_ZL36mavlink_msg_mission_clear_all_decodePK17__mavlink_messageP29__mavlink_mission_clear_all_t(%struct.__mavlink_message* %msg, %struct.__mavlink_mission_clear_all_t* %mission_clear_all) #3 !dbg !8210 {
entry:
  %msg.addr = alloca %struct.__mavlink_message*, align 8
  %mission_clear_all.addr = alloca %struct.__mavlink_mission_clear_all_t*, align 8
  %len = alloca i8, align 1
  store %struct.__mavlink_message* %msg, %struct.__mavlink_message** %msg.addr, align 8
  call void @llvm.dbg.declare(metadata %struct.__mavlink_message** %msg.addr, metadata !8214, metadata !6032), !dbg !8215
  store %struct.__mavlink_mission_clear_all_t* %mission_clear_all, %struct.__mavlink_mission_clear_all_t** %mission_clear_all.addr, align 8
  call void @llvm.dbg.declare(metadata %struct.__mavlink_mission_clear_all_t** %mission_clear_all.addr, metadata !8216, metadata !6032), !dbg !8217
  call void @llvm.dbg.declare(metadata i8* %len, metadata !8218, metadata !6032), !dbg !8219
  %0 = load %struct.__mavlink_message*, %struct.__mavlink_message** %msg.addr, align 8, !dbg !8220
  %len1 = getelementptr inbounds %struct.__mavlink_message, %struct.__mavlink_message* %0, i32 0, i32 2, !dbg !8221
  %1 = load i8, i8* %len1, align 1, !dbg !8221
  %conv = zext i8 %1 to i32, !dbg !8220
  %cmp = icmp slt i32 %conv, 3, !dbg !8222
  br i1 %cmp, label %cond.true, label %cond.false, !dbg !8220

cond.true:                                        ; preds = %entry
  %2 = load %struct.__mavlink_message*, %struct.__mavlink_message** %msg.addr, align 8, !dbg !8223
  %len2 = getelementptr inbounds %struct.__mavlink_message, %struct.__mavlink_message* %2, i32 0, i32 2, !dbg !8225
  %3 = load i8, i8* %len2, align 1, !dbg !8225
  %conv3 = zext i8 %3 to i32, !dbg !8223
  br label %cond.end, !dbg !8226

cond.false:                                       ; preds = %entry
  br label %cond.end, !dbg !8227

cond.end:                                         ; preds = %cond.false, %cond.true
  %cond = phi i32 [ %conv3, %cond.true ], [ 3, %cond.false ], !dbg !8229
  %conv4 = trunc i32 %cond to i8, !dbg !8229
  store i8 %conv4, i8* %len, align 1, !dbg !8231
  %4 = load %struct.__mavlink_mission_clear_all_t*, %struct.__mavlink_mission_clear_all_t** %mission_clear_all.addr, align 8, !dbg !8232
  %5 = bitcast %struct.__mavlink_mission_clear_all_t* %4 to i8*, !dbg !8233
  call void @llvm.memset.p0i8.i64(i8* %5, i8 0, i64 3, i32 1, i1 false), !dbg !8233
  %6 = load %struct.__mavlink_mission_clear_all_t*, %struct.__mavlink_mission_clear_all_t** %mission_clear_all.addr, align 8, !dbg !8234
  %7 = bitcast %struct.__mavlink_mission_clear_all_t* %6 to i8*, !dbg !8235
  %8 = load %struct.__mavlink_message*, %struct.__mavlink_message** %msg.addr, align 8, !dbg !8236
  %payload64 = getelementptr inbounds %struct.__mavlink_message, %struct.__mavlink_message* %8, i32 0, i32 9, !dbg !8236
  %arrayidx = getelementptr inbounds [33 x i64], [33 x i64]* %payload64, i64 0, i64 0, !dbg !8236
  %9 = bitcast i64* %arrayidx to i8*, !dbg !8235
  %10 = load i8, i8* %len, align 1, !dbg !8237
  %conv5 = zext i8 %10 to i64, !dbg !8237
  call void @llvm.memcpy.p0i8.p0i8.i64(i8* %7, i8* %9, i64 %conv5, i32 1, i1 false), !dbg !8235
  ret void, !dbg !8238
}

declare zeroext i1 @_ZN10AP_Mission5clearEv(%class.AP_Mission*) #4

; Function Attrs: nounwind uwtable
define void @_ZN11GCS_MAVLINK33handle_mission_write_partial_listER10AP_MissionP17__mavlink_message(%class.GCS_MAVLINK* %this, %class.AP_Mission* dereferenceable(184) %mission, %struct.__mavlink_message* %msg) #0 align 2 !dbg !8239 {
entry:
  %this.addr = alloca %class.GCS_MAVLINK*, align 8
  %mission.addr = alloca %class.AP_Mission*, align 8
  %msg.addr = alloca %struct.__mavlink_message*, align 8
  %packet = alloca %struct.__mavlink_mission_write_partial_list_t, align 1
  store %class.GCS_MAVLINK* %this, %class.GCS_MAVLINK** %this.addr, align 8
  call void @llvm.dbg.declare(metadata %class.GCS_MAVLINK** %this.addr, metadata !8240, metadata !6032), !dbg !8241
  store %class.AP_Mission* %mission, %class.AP_Mission** %mission.addr, align 8
  call void @llvm.dbg.declare(metadata %class.AP_Mission** %mission.addr, metadata !8242, metadata !6032), !dbg !8243
  store %struct.__mavlink_message* %msg, %struct.__mavlink_message** %msg.addr, align 8
  call void @llvm.dbg.declare(metadata %struct.__mavlink_message** %msg.addr, metadata !8244, metadata !6032), !dbg !8245
  %this1 = load %class.GCS_MAVLINK*, %class.GCS_MAVLINK** %this.addr, align 8
  call void @llvm.dbg.declare(metadata %struct.__mavlink_mission_write_partial_list_t* %packet, metadata !8246, metadata !6032), !dbg !8256
  %0 = load %struct.__mavlink_message*, %struct.__mavlink_message** %msg.addr, align 8, !dbg !8257
  call void @_ZL45mavlink_msg_mission_write_partial_list_decodePK17__mavlink_messageP38__mavlink_mission_write_partial_list_t(%struct.__mavlink_message* %0, %struct.__mavlink_mission_write_partial_list_t* %packet), !dbg !8258
  %start_index = getelementptr inbounds %struct.__mavlink_mission_write_partial_list_t, %struct.__mavlink_mission_write_partial_list_t* %packet, i32 0, i32 0, !dbg !8259
  %1 = load i16, i16* %start_index, align 1, !dbg !8259
  %conv = sext i16 %1 to i32, !dbg !8261
  %2 = load %class.AP_Mission*, %class.AP_Mission** %mission.addr, align 8, !dbg !8262
  %call = call zeroext i16 @_ZNK10AP_Mission12num_commandsEv(%class.AP_Mission* %2), !dbg !8263
  %conv2 = zext i16 %call to i32, !dbg !8262
  %cmp = icmp ugt i32 %conv, %conv2, !dbg !8264
  br i1 %cmp, label %if.then, label %lor.lhs.false, !dbg !8265

lor.lhs.false:                                    ; preds = %entry
  %end_index = getelementptr inbounds %struct.__mavlink_mission_write_partial_list_t, %struct.__mavlink_mission_write_partial_list_t* %packet, i32 0, i32 1, !dbg !8266
  %3 = load i16, i16* %end_index, align 1, !dbg !8266
  %conv3 = sext i16 %3 to i32, !dbg !8267
  %4 = load %class.AP_Mission*, %class.AP_Mission** %mission.addr, align 8, !dbg !8268
  %call4 = call zeroext i16 @_ZNK10AP_Mission12num_commandsEv(%class.AP_Mission* %4), !dbg !8269
  %conv5 = zext i16 %call4 to i32, !dbg !8268
  %cmp6 = icmp ugt i32 %conv3, %conv5, !dbg !8270
  br i1 %cmp6, label %if.then, label %lor.lhs.false7, !dbg !8271

lor.lhs.false7:                                   ; preds = %lor.lhs.false
  %end_index8 = getelementptr inbounds %struct.__mavlink_mission_write_partial_list_t, %struct.__mavlink_mission_write_partial_list_t* %packet, i32 0, i32 1, !dbg !8272
  %5 = load i16, i16* %end_index8, align 1, !dbg !8272
  %conv9 = sext i16 %5 to i32, !dbg !8273
  %start_index10 = getelementptr inbounds %struct.__mavlink_mission_write_partial_list_t, %struct.__mavlink_mission_write_partial_list_t* %packet, i32 0, i32 0, !dbg !8274
  %6 = load i16, i16* %start_index10, align 1, !dbg !8274
  %conv11 = sext i16 %6 to i32, !dbg !8275
  %cmp12 = icmp slt i32 %conv9, %conv11, !dbg !8276
  br i1 %cmp12, label %if.then, label %if.end, !dbg !8277

if.then:                                          ; preds = %lor.lhs.false7, %lor.lhs.false, %entry
  call void (%class.GCS_MAVLINK*, i32, i8*, ...) @_ZN11GCS_MAVLINK9send_textE12MAV_SEVERITYPKcz(%class.GCS_MAVLINK* %this1, i32 4, i8* getelementptr inbounds ([28 x i8], [28 x i8]* @.str.3, i32 0, i32 0)), !dbg !8279
  br label %return, !dbg !8281

if.end:                                           ; preds = %lor.lhs.false7
  %call13 = call i32 @_ZN6AP_HAL6millisEv(), !dbg !8282
  %waypoint_timelast_receive = getelementptr inbounds %class.GCS_MAVLINK, %class.GCS_MAVLINK* %this1, i32 0, i32 25, !dbg !8283
  store i32 %call13, i32* %waypoint_timelast_receive, align 8, !dbg !8284
  %waypoint_timelast_request = getelementptr inbounds %class.GCS_MAVLINK, %class.GCS_MAVLINK* %this1, i32 0, i32 26, !dbg !8285
  store i32 0, i32* %waypoint_timelast_request, align 4, !dbg !8286
  %waypoint_receiving = getelementptr inbounds %class.GCS_MAVLINK, %class.GCS_MAVLINK* %this1, i32 0, i32 5, !dbg !8287
  store i8 1, i8* %waypoint_receiving, align 2, !dbg !8288
  %start_index14 = getelementptr inbounds %struct.__mavlink_mission_write_partial_list_t, %struct.__mavlink_mission_write_partial_list_t* %packet, i32 0, i32 0, !dbg !8289
  %7 = load i16, i16* %start_index14, align 1, !dbg !8289
  %waypoint_request_i = getelementptr inbounds %class.GCS_MAVLINK, %class.GCS_MAVLINK* %this1, i32 0, i32 7, !dbg !8290
  store i16 %7, i16* %waypoint_request_i, align 4, !dbg !8291
  %end_index15 = getelementptr inbounds %struct.__mavlink_mission_write_partial_list_t, %struct.__mavlink_mission_write_partial_list_t* %packet, i32 0, i32 1, !dbg !8292
  %8 = load i16, i16* %end_index15, align 1, !dbg !8292
  %waypoint_request_last = getelementptr inbounds %class.GCS_MAVLINK, %class.GCS_MAVLINK* %this1, i32 0, i32 8, !dbg !8293
  store i16 %8, i16* %waypoint_request_last, align 2, !dbg !8294
  %9 = load %struct.__mavlink_message*, %struct.__mavlink_message** %msg.addr, align 8, !dbg !8295
  %sysid = getelementptr inbounds %struct.__mavlink_message, %struct.__mavlink_message* %9, i32 0, i32 6, !dbg !8296
  %10 = load i8, i8* %sysid, align 1, !dbg !8296
  %conv16 = zext i8 %10 to i16, !dbg !8295
  %waypoint_dest_sysid = getelementptr inbounds %class.GCS_MAVLINK, %class.GCS_MAVLINK* %this1, i32 0, i32 22, !dbg !8297
  store i16 %conv16, i16* %waypoint_dest_sysid, align 2, !dbg !8298
  %11 = load %struct.__mavlink_message*, %struct.__mavlink_message** %msg.addr, align 8, !dbg !8299
  %compid = getelementptr inbounds %struct.__mavlink_message, %struct.__mavlink_message* %11, i32 0, i32 7, !dbg !8300
  %12 = load i8, i8* %compid, align 1, !dbg !8300
  %conv17 = zext i8 %12 to i16, !dbg !8299
  %waypoint_dest_compid = getelementptr inbounds %class.GCS_MAVLINK, %class.GCS_MAVLINK* %this1, i32 0, i32 23, !dbg !8301
  store i16 %conv17, i16* %waypoint_dest_compid, align 4, !dbg !8302
  br label %return, !dbg !8303

return:                                           ; preds = %if.end, %if.then
  ret void, !dbg !8304
}

; Function Attrs: inlinehint nounwind uwtable
define internal void @_ZL45mavlink_msg_mission_write_partial_list_decodePK17__mavlink_messageP38__mavlink_mission_write_partial_list_t(%struct.__mavlink_message* %msg, %struct.__mavlink_mission_write_partial_list_t* %mission_write_partial_list) #3 !dbg !8305 {
entry:
  %msg.addr = alloca %struct.__mavlink_message*, align 8
